(lp1
(lp2
F257.597900390625
aF157.63438415527344
aF12.897825241088867
aF31.400632858276367
aF127.23483657836914
aa(lp3
F268
aF143
aF2.1067407131195068
aF11.470032691955566
aF159.44395446777344
aa(lp4
F254.30000305175781
aF137.90000915527344
aF11.180341720581055
aF2.2360680103302002
aF79.695154190063477
aa.(lp1
(lp2
F256.23104858398438
aF143.22760009765625
aF5.7301387786865234
aF26.076282501220703
aF94.763648986816406
aa(lp3
F248.25003051757812
aF156.75001525878906
aF4.9497475624084473
aF11.31370735168457
aF135
aa.(lp1
(lp2
F227.53996276855469
aF133.21998596191406
aF0.84852820634841919
aF9.0509672164916992
aF98.130104064941406
aa.(lp1
(lp2
F218.15681457519531
aF133.47633361816406
aF13.000000953674316
aF4.384615421295166
aF67.380134582519531
aa(lp3
F237.53849792480469
aF147.30770874023438
aF0.78446453809738159
aF7.0601806640625
aF101.30992889404297
aa.(lp1
(lp2
F209.34907531738281
aF153.52828979492188
aF1.0988844633102417
aF7.2801089286804199
aF105.94539642333984
aa(lp3
F209
aF131.5
aF12
aF1
aF90
aa.(lp1
(lp2
F204.42263793945312
aF151.63008117675781
aF12.288804054260254
aF35.220062255859375
aF91.684684753417969
aa(lp3
F193
aF130
aF14
aF2
aF90
aa(lp4
F210.88645935058594
aF138.55361938476562
aF7.0768642425537109
aF22.971729278564453
aF128.1572265625
aa(lp5
F191
aF143.5
aF1
aF2
aF90
aa.(lp1
(lp2
F166.93400573730469
aF127.57613372802734
aF14.03566837310791
aF1.8524233102798462
aF85.914383411407471
aa.(lp1
(lp2
F180.9769287109375
aF146.68463134765625
aF21.209938049316406
aF53.458965301513672
aF97.125015258789062
aa.(lp1
(lp2
F133.95947265625
aF147.74324035644531
aF0.82199496030807495
aF8.0555505752563477
aF99.462326049804688
aa.(lp1
(lp2
F171.99586486816406
aF154.92124938964844
aF21.444004058837891
aF40.207508087158203
aF176.98721241950989
aa(lp3
F127.98077392578125
aF146.59614562988281
aF0.78446453809738159
aF8.0407619476318359
aF101.30992889404297
aa.(lp1
(lp2
F124.72586822509766
aF141.16035461425781
aF21.139926910400391
aF39.167591094970703
aF93.366455078125
aa(lp3
F115.5
aF144.5
aF1
aF7
aF90
aa.(lp1
(lp2
F396.25003051757812
aF106.25001525878906
aF1.4142134189605713
aF0.70710670948028564
aF45
aa.(lp1
(lp2
F368.3758544921875
aF158.6103515625
aF67.765213012695312
aF38.991424560546875
aF3.366455078125
aa(lp3
F104.92307281494141
aF139.61540222167969
aF21.333972930908203
aF39.443042755126953
aF97.125015258789062
aa(lp4
F95.538475036621094
aF143.30769348144531
aF0.78446453809738159
aF7.0601806640625
aF101.30992889404297
aa(lp5
F393.5
aF115.5
aF5
aF1
aF90
aa.(lp1
(lp2
F89
aF138
aF42
aF22
aF90
aa(lp3
F374.75003051757812
aF104.75001525878906
aF1.4142134189605713
aF0.70710670948028564
aF45
aa(lp4
F78.057693481445312
aF141.21153259277344
aF0.78446453809738159
aF6.0795998573303223
aF101.30992889404297
aa.(lp1
(lp2
F79
aF138.5
aF44
aF19
aF90
aa(lp3
F71.762374877929688
aF127.12375640869141
aF30.149629592895508
aF4.7761788368225098
aF84.289407730102539
aa(lp4
F66.43243408203125
aF139.9053955078125
aF0.98639392852783203
aF7.0691566467285156
aF99.462326049804688
aa.(lp1
(lp2
F331.9864501953125
aF156.58108520507812
aF69.86956787109375
aF33.044193267822266
aF9.4623260498046875
aa.(lp1
(lp2
F329.33001708984375
aF154.19000244140625
aF63.922454833984375
aF28.425693511962891
aF8.1301040649414062
aa(lp3
F57.365386962890625
aF135.17308044433594
aF19.807729721069336
aF34.908668518066406
aF101.30992889404297
aa(lp4
F59.049999237060547
aF125.85000610351562
aF0.94868320226669312
aF8.2219219207763672
aF108.43495178222656
aa.(lp1
(lp2
F322.1510009765625
aF152.1883544921875
aF63.124088287353516
aF21.244716644287109
aF9.2933120727539062
aa.(lp1
(lp2
F200.32627868652344
aF136.6722412109375
aF58.955005645751953
aF25.714012145996094
aF6.5819473266601562
aa(lp3
F191.5
aF149.5
aF5.0596437454223633
aF0.63245546817779541
aF18.434951782226562
aa(lp4
F212.1470947265625
aF120.91177368164062
aF4.123105525970459
aF0.72760689258575439
aF14.036239624023438
aa.(lp1
(lp2
F203.36859130859375
aF138.36129760742188
aF61.328960418701172
aF35.932830810546875
aF1.54815673828125
aa(lp3
F190.5
aF124.5
aF1
aF11
aF180
aa.(lp1
(lp2
F202.69752502441406
aF135.83139038085938
aF61.361698150634766
aF37.200038909912109
aF4.5139923095703125
aa(lp3
F189.25001525878906
aF122.75002288818359
aF0.70710670948028564
aF1.4142134189605713
aF135
aa.(lp1
(lp2
F222.25003051757812
aF113.75001525878906
aF0.70710670948028564
aF1.4142134189605713
aF135
aa.(lp1
(lp2
F170.05000305175781
aF146.34999084472656
aF3.1622774600982666
aF0.94868320226669312
aF18.434951782226562
aa(lp3
F170.75001525878906
aF142.75001525878906
aF1.4142134189605713
aF0.70710670948028564
aF45
aa(lp4
F203.55998229980469
aF111.07998657226562
aF0.84852820634841919
aF7.0710678100585938
aF98.130104064941406
aa.(lp1
(lp2
F165.5
aF144.5
aF1
aF5
aF180
aa.(lp1
(lp2
F154.25001525878906
aF143.25001525878906
aF1.4142134189605713
aF0.70710670948028564
aF45
aa.(lp1
(lp2
F146.5
aF143
aF2.1213202476501465
aF0.70710670948028564
aF45
aa(lp3
F521
aF6.5
aF11
aF20
aF90
aa.(lp1
(lp2
F507
aF5.5
aF9
aF30
aF90
aa(lp3
F125.75001525878906
aF139.75001525878906
aF1.4142134189605713
aF0.70710670948028564
aF45
aa.(lp1
(lp2
F510.5
aF5.5
aF9
aF43
aF90
aa(lp3
F109.75000762939453
aF135.75
aF1.4142134189605713
aF0.70710670948028564
aF45
aa.(lp1
(lp2
F500
aF8.5
aF15
aF28
aF90
aa(lp3
F101.90001678466797
aF156.70001220703125
aF0.4472135603427887
aF2.2360680103302002
aF116.56504821777344
aa.(lp1
(lp2
F498
aF8.5
aF15
aF34
aF90
aa(lp3
F125.57691955566406
aF99.115386962890625
aF0.78446453809738159
aF5.0990195274353027
aF101.30992889404297
aa.(lp1
(lp2
F506
aF8.9999990463256836
aF55.999992370605469
aF15.999998092651367
aF90
aa.(lp1
(lp2
F502
aF7.5
aF13
aF50
aF90
aa(lp3
F496.20004272460938
aF2.5999970436096191
aF0.63245546817779541
aF3.1622774600982666
aF161.56505012512207
aa(lp4
F481.30007934570312
aF1.9000033140182495
aF2.2360680103302002
aF0.4472135603427887
aF26.565048217773438
aa.(lp1
(lp2
F502.5
aF8
aF14
aF55
aF90
aa(lp3
F56.814735412597656
aF140.72286987304688
aF20.734888076782227
aF42.282432556152344
aF142.00126647949219
aa(lp4
F84.970596313476562
aF93.617652893066406
aF0.72760689258575439
aF6.0633902549743652
aF104.03623962402344
aa(lp5
F494.14712524414062
aF2.9117755889892578
aF4.123105525970459
aF0.72760689258575439
aF14.036239624023438
aa.(lp1
(lp2
F502.5
aF9.5
aF17
aF55
aF90
aa(lp3
F47.695125579833984
aF121.74390411376953
aF18.331634521484375
aF6.6258926391601562
aF6.3401870727539062
aa(lp4
F494
aF1.9999850988388062
aF4.242640495300293
aF1.4142134189605713
aF45
aa(lp5
F479.1470947265625
aF2.9117679595947266
aF4.123105525970459
aF0.72760689258575439
aF14.036239624023438
aa(lp6
F459
aF5.5
aF9
aF20
aF90
aa.(lp1
(lp2
F500.5
aF9.5
aF17
aF51
aF90
aa(lp3
F497.73587036132812
aF1.5754640102386475
aF10.43940258026123
aF2.060408353805542
aF74.054604530334473
aa(lp4
F515.10003662109375
aF1.3000001907348633
aF0.4472135603427887
aF2.2360680103302002
aF116.56504821777344
aa.(lp1
(lp2
F495
aF8.5
aF15
aF78
aF90
aa(lp3
F504.5
aF3
aF11
aF2
aF90
aa(lp4
F514.68865966796875
aF1.3396227359771729
aF1.373605489730835
aF7.2801089286804199
aF105.94539642333984
aa(lp5
F43.040542602539062
aF147.25677490234375
aF0.82199496030807495
aF8.0555505752563477
aF99.462326049804688
aa(lp6
F479.35000610351562
aF2.9500036239624023
aF4.1109609603881836
aF0.63245546817779541
aF18.434951782226562
aa.(lp1
(lp2
F507.82318115234375
aF11.408539772033691
aF54.332313537597656
aF14.908257484436035
aF83.659808158874512
aa(lp3
F507.8145751953125
aF4.1966304779052734
aF20.387262344360352
aF3.4478456974029541
aF77.005383491516113
aa(lp4
F457.9091796875
aF7.7913923263549805
aF6.6879963874816895
aF39.623226165771484
aF100.17550659179688
aa(lp5
F20.500005722045898
aF139
aF14.230247497558594
aF4.7434163093566895
aF18.434951782226562
aa(lp6
F28.453845977783203
aF145.86924743652344
aF0.86824309825897217
aF9.0545358657836914
aF97.125015258789062
aa(lp7
F484.30001831054688
aF7.9000039100646973
aF2.2360680103302002
aF0.4472135603427887
aF26.565048217773438
aa(lp8
F522
aF1.5
aF1
aF6
aF90
aa(lp9
F481.9146728515625
aF2.2682979106903076
aF6.4031243324279785
aF1.8740851879119873
aF51.340190887451172
aa.(lp1
(lp2
F507.29763793945312
aF5.6849699020385742
aF13.152946472167969
aF2.6610007286071777
aF81.253837585449219
aa(lp3
F519.0799560546875
aF3.439995288848877
aF2.2627418041229248
aF8.2024393081665039
aF98.130104064941406
aa(lp4
F509
aF11.5
aF21
aF50
aF90
aa(lp5
F523.5689697265625
aF1.827601432800293
aF1.1141719818115234
aF7.2421178817749023
aF111.80140686035156
aa(lp6
F456
aF5.5
aF24
aF9
aF90
aa(lp7
F487.25003051757812
aF1.2500002384185791
aF1.4142134189605713
aF0.70710670948028564
aF45
aa.(lp1
(lp2
F31.735563278198242
aF113.68537902832031
aF64.349037170410156
aF41.211261749267578
aF2.662994384765625
aa(lp3
F488.25006103515625
aF2.2499849796295166
aF1.4142134189605713
aF0.70710670948028564
aF45
aa(lp4
F492.25006103515625
aF1.2499848604202271
aF1.4142134189605713
aF0.70710670948028564
aF45
aa(lp5
F452.5
aF5.5
aF9
aF27
aF90
aa.(lp1
(lp2
F508
aF14.5
aF52
aF27
aF90
aa(lp3
F526.67010498046875
aF3.7422749996185303
aF2.0306923389434814
aF10.762669563293457
aF113.96249389648438
aa(lp4
F3.4000034332275391
aF107.20001220703125
aF0.89442712068557739
aF5.3665633201599121
aF116.56504821777344
aa(lp5
F503.67120361328125
aF8.1232948303222656
aF10.767786026000977
aF2.1067407131195068
aF69.443954467773438
aa(lp6
F462
aF7.5
aF36
aF13
aF90
aa(lp7
F3.4000034332275391
aF110.80001068115234
aF5.3665633201599121
aF0.89442712068557739
aF63.43494987487793
aa(lp8
F513.5999755859375
aF5.8000011444091797
aF3.1622774600982666
aF0.63245546817779541
aF71.565052032470703
aa.(lp1
(lp2
F494.5
aF11.5
aF37
aF21
aF90
aa(lp3
F446
aF8.5
aF15
aF50
aF90
aa(lp4
F500.92074584960938
aF9.5482778549194336
aF18.020870208740234
aF2.4083189964294434
aF85.236358165740967
aa(lp5
F6
aF85.5
aF19
aF10
aF0
aa.(lp1
(lp2
F470
aF15.5
aF29
aF96
aF90
aa(lp3
F508.40005493164062
aF8.1999950408935547
aF0.89442712068557739
aF5.3665633201599121
aF116.56504821777344
aa(lp4
F496.00006103515625
aF9.9999923706054688
aF14.55213737487793
aF1.4552136659622192
aF75.96375560760498
aa.(lp1
(lp2
F461.5
aF15.5
aF29
aF101
aF90
aa(lp3
F488.89996337890625
aF10.300004959106445
aF14.142135620117188
aF1.4142136573791504
aF81.869897842407227
aa(lp4
F502.75006103515625
aF6.2499852180480957
aF0.70710670948028564
aF2.8284268379211426
aF135
aa(lp5
F470.91180419921875
aF1.1470620632171631
aF4.123105525970459
aF0.72760689258575439
aF75.96375560760498
aa.(lp1
(lp2
F499.84613037109375
aF7.2307615280151367
aF1.6641006469726562
aF9.9846038818359375
aF123.6900634765625
aa(lp3
F459.5
aF16.5
aF31
aF93
aF90
aa(lp4
F498.95004272460938
aF10.650004386901855
aF0.63245546817779541
aF4.1109609603881836
aF108.43495178222656
aa(lp5
F483.59600830078125
aF10.527998924255371
aF11.180341720581055
aF1.0733127593994141
aF79.695154190063477
aa.(lp1
(lp2
F446
aF16
aF104
aF30
aF90
aa(lp3
F491.26727294921875
aF9.0431079864501953
aF1.1817581653594971
aF7.6157741546630859
aF113.19859313964844
aa(lp4
F455
aF1.5
aF1
aF6
aF90
aa(lp5
F477
aF1.5
aF1
aF6
aF90
aa(lp6
F474.423095703125
aF10.615396499633789
aF11.178619384765625
aF0.98058068752288818
aF78.690067291259766
aa.(lp1
(lp2
F468.74777221679688
aF18.213827133178711
aF50.183380126953125
aF29.058021545410156
aF75.173521041870117
aa(lp3
F485.8707275390625
aF9.3017282485961914
aF1.1817581653594971
aF8.9288387298583984
aF113.19859313964844
aa(lp4
F416.5
aF8.5
aF15
aF51
aF90
aa(lp5
F468.02349853515625
aF11.10589599609375
aF12.148105621337891
aF0.86772191524505615
aF77.47119140625
aa(lp6
F451.90005493164062
aF1.3000216484069824
aF2.2360680103302002
aF0.4472135603427887
aF63.43494987487793
aa.(lp1
(lp2
F427.5
aF16.5
aF31
aF105
aF90
aa(lp3
F472.66293334960938
aF10.539333343505859
aF1.4839969873428345
aF11.659977912902832
aF122.0053825378418
aa(lp4
F439
aF3.5
aF6
aF1
aF90
aa(lp5
F457.46151733398438
aF13.307690620422363
aF13.335897445678711
aF1.17669677734375
aF78.690067291259766
aa(lp6
F462.11764526367188
aF1.0294042825698853
aF0.9701424241065979
aF4.123105525970459
aF104.03623962402344
aa.(lp1
(lp2
F423.5
aF18
aF34
aF105
aF90
aa(lp3
F467.6400146484375
aF11.479991912841797
aF1.2000000476837158
aF10
aF126.86989974975586
aa(lp4
F452.04702758789062
aF14.211762428283691
aF12.148105621337891
aF1.084652304649353
aF77.47119140625
aa(lp5
F434.5
aF1.5
aF1
aF5
aF90
aa.(lp1
(lp2
F415
aF17.5
aF33
aF104
aF90
aa(lp3
F429.5
aF3
aF4
aF9
aF90
aa(lp4
F443.83901977539062
aF13.748776435852051
aF14.31782341003418
aF1.5365468263626099
aF77.905242919921875
aa(lp5
F422.25003051757812
aF9.7500009536743164
aF0.70710670948028564
aF1.4142134189605713
aF135
aa.(lp1
(lp2
F412.5
aF17.5
aF33
aF99
aF90
aa(lp3
F451.00006103515625
aF8.5000009536743164
aF0.70710670948028564
aF3.5355339050292969
aF135
aa(lp4
F440.40994262695312
aF14.369999885559082
aF15.132086753845215
aF1.4142136573791504
aF81.869897842407227
aa(lp5
F417.50003051757812
aF4.0000133514404297
aF6.0083274841308594
aF0.94868320226669312
aF18.434951782226562
aa(lp6
F417.4000244140625
aF15.20000171661377
aF4.4721360206604004
aF0.89442712068557739
aF26.565048217773438
aa(lp7
F452.23529052734375
aF13.941178321838379
aF1.0289915800094604
aF5.8309516906738281
aF120.96376037597656
aa(lp8
F425
aF1.5
aF1
aF4
aF90
aa(lp9
F438
aF1.5
aF1
aF8
aF90
aa.(lp1
(lp2
F406
aF18
aF104
aF34
aF90
aa(lp3
F434.5
aF15.499997138977051
aF13.335897445678711
aF1.17669677734375
aF78.690067291259766
aa(lp4
F412.56607055664062
aF5.5188708305358887
aF9.4778776168823242
aF1.0988844633102417
aF15.945396423339844
aa(lp5
F453.60003662109375
aF15.299986839294434
aF0.89442712068557739
aF3.1304950714111328
aF116.56504821777344
aa(lp6
F412.30007934570312
aF16.400007247924805
aF3.1304950714111328
aF0.89442712068557739
aF26.565048217773438
aa(lp7
F442.75003051757812
aF12.250000953674316
aF0.70710670948028564
aF2.8284268379211426
aF135
aa(lp8
F447.50006103515625
aF15.500001907348633
aF0.4472135603427887
aF3.1304950714111328
aF116.56504821777344
aa.(lp1
(lp2
F402.28158569335938
aF12.452970504760742
aF26.905490875244141
aF105.85543823242188
aF110.89775848388672
aa(lp3
F444.00003051757812
aF17.500001907348633
aF0.70710670948028564
aF2.1213202476501465
aF135
aa(lp4
F424.50006103515625
aF18.500001907348633
aF5.6568536758422852
aF1.4142134189605713
aF45
aa(lp5
F449.75006103515625
aF23.249971389770508
aF0.70710670948028564
aF1.4142134189605713
aF135
aa(lp6
F439.10006713867188
aF17.299985885620117
aF0.4472135603427887
aF2.2360680103302002
aF116.56504821777344
aa(lp7
F407.6500244140625
aF11.050010681152344
aF4.1109609603881836
aF0.63245546817779541
aF18.434951782226562
aa.(lp1
(lp2
F375.5
aF11
aF55
aF20
aF90
aa.(lp1
(lp2
F403.268310546875
aF11.575811386108398
aF31.988361358642578
aF104.90573120117188
aF112.69379425048828
aa(lp3
F449.16177368164062
aF28.897058486938477
aF5.8309516906738281
aF1.5434873104095459
aF30.963748931884766
aa(lp4
F430.5
aF18.5
aF9
aF1
aF90
aa(lp5
F410.83023071289062
aF8.0943412780761719
aF8.5163545608520508
aF1.373605489730835
aF15.945396423339844
aa(lp6
F449.80001831054688
aF22.400001525878906
aF0.63245546817779541
aF3.1622774600982666
aF161.56505012512207
aa(lp7
F441.10006713867188
aF19.300016403198242
aF0.4472135603427887
aF2.2360680103302002
aF116.56504821777344
aa(lp8
F397.44122314453125
aF17.735288619995117
aF0.72760689258575439
aF5.0932478904724121
aF104.03623962402344
aa.(lp1
(lp2
F404.74200439453125
aF20.546140670776367
aF34.242050170898438
aF105.18860626220703
aF92.662994384765625
aa(lp3
F448.50006103515625
aF19.500017166137695
aF4.242640495300293
aF15.55634880065918
aF135
aa(lp4
F415.31207275390625
aF5.238853931427002
aF5.2673740386962891
aF12.529965400695801
aF151.38954162597656
aa(lp5
F448.50003051757812
aF31.499996185302734
aF7
aF1
aF53.130100250244141
aa(lp6
F433.97293090820312
aF18.83784294128418
aF10.192737579345703
aF0.98639392852783203
aF80.537677764892578
aa(lp7
F412.800048828125
aF9.1000022888183594
aF4.1109609603881836
aF0.94868320226669312
aF18.434951782226562
aa(lp8
F442.34613037109375
aF19.230775833129883
aF0.55470025539398193
aF3.6055512428283691
aF123.6900634765625
aa(lp9
F402.34609985351562
aF19.23076057434082
aF0.55470025539398193
aF3.6055512428283691
aF123.6900634765625
aa.(lp1
(lp2
F410.78070068359375
aF11.597092628479004
aF32.520736694335938
aF107.97139739990234
aF111.12472534179688
aa(lp3
F449.50003051757812
aF17.500015258789062
aF3.6025519371032715
aF13.748513221740723
aF143.97262191772461
aa(lp4
F397.48651123046875
aF17.581089019775391
aF1.9727878570556641
aF7.3979544639587402
aF99.462326049804688
aa(lp5
F441
aF20
aF14
aF2
aF90
aa.(lp1
(lp2
F438.41717529296875
aF19.70118522644043
aF33.941123962402344
aF75.606033325195312
aF112.38013458251953
aa(lp3
F429.80001831054688
aF22.099996566772461
aF4.1109609603881836
aF0.94868320226669312
aF18.434951782226562
aa(lp4
F379.94451904296875
aF12.173039436340332
aF5.2942485809326172
aF40.246566772460938
aF115.90650939941406
aa(lp5
F419.75006103515625
aF25.749988555908203
aF1.4142134189605713
aF0.70710670948028564
aF45
aa(lp6
F394.12069702148438
aF16.051731109619141
aF5.385164737701416
aF2.0426487922668457
aF68.198593139648438
aa.(lp1
(lp2
F386.30001831054688
aF13.900003433227539
aF5.8137764930725098
aF21.019037246704102
aF116.56504821777344
aa(lp3
F435.99896240234375
aF21.397781372070312
aF28.246967315673828
aF75.063209533691406
aF109.384521484375
aa(lp4
F397.10003662109375
aF19.200010299682617
aF0.89442712068557739
aF2.2360680103302002
aF153.43494987487793
aa(lp5
F368.91464233398438
aF6.2317018508911133
aF3.279649019241333
aF12.962422370910645
aF128.65980529785156
aa.(lp1
(lp2
F403
aF15.5
aF29
aF68
aF90
aa(lp3
F425.10006713867188
aF1.7999849319458008
aF0.4472135603427887
aF4.4721360206604004
aF116.56504821777344
aa.(lp1
(lp2
F403
aF14.5
aF66
aF27
aF90
aa.(lp1
(lp2
F430.84457397460938
aF17.460103988647461
aF31.850452423095703
aF119.11822509765625
aF113.86017608642578
aa(lp3
F429.00006103515625
aF2.5000090599060059
aF0.89442706108093262
aF6.7082037925720215
aF116.56504821777344
aa(lp4
F464.453857421875
aF28.130777359008789
aF9.0545358657836914
aF0.86824309825897217
aF82.874983310699463
aa(lp5
F476.92303466796875
aF28.615390777587891
aF0.55470025539398193
aF4.9923019409179688
aF123.6900634765625
aa.(lp1
(lp2
F471
aF36.5
aF44
aF23
aF90
aa(lp3
F407
aF13.5
aF58
aF25
aF90
aa.(lp1
(lp2
F466.47323608398438
aF19.113590240478516
aF25.435905456542969
aF74.070213317871094
aF135.72522354125977
aa(lp3
F434.85986328125
aF28.358200073242188
aF10.810513496398926
aF75.795059204101562
aF111.37062072753906
aa(lp4
F389.382080078125
aF8.4887752532958984
aF4.8759903907775879
aF20.45796012878418
aF122.0053825378418
aa(lp5
F455.5
aF32
aF2
aF1
aF0
aa(lp6
F424.25006103515625
aF24.250001907348633
aF1.4142134189605713
aF3.5355339050292969
aF135
aa.(lp1
(lp2
F399.31951904296875
aF14.029380798339844
aF6.3889436721801758
aF62.017929077148438
aF108.82470703125
aa(lp3
F378.25
aF4.7500004768371582
aF3.1622774600982666
aF1.5811388492584229
aF71.565052032470703
aa.(lp1
(lp2
F414.43695068359375
aF8.3490982055664062
aF29.220712661743164
aF85.944252014160156
aF112.32865905761719
aa.(lp1
(lp2
F418.38784790039062
aF9.1671276092529297
aF28.031044006347656
aF90.496902465820312
aF111.33686065673828
aa.(lp1
(lp2
F417.91903686523438
aF21.895751953125
aF11.548246383666992
aF101.52542877197266
aF107.89613342285156
aa(lp3
F441.86483764648438
aF5.6891870498657227
aF1.2787238359451294
aF14.995944976806641
aF125.53768157958984
aa(lp4
F457.02389526367188
aF12.179245948791504
aF9.0997905731201172
aF40.282260894775391
aF131.82016754150391
aa(lp5
F465
aF28
aF2
aF6
aF180
aa(lp6
F447.20004272460938
aF33.099987030029297
aF0.89442706108093262
aF6.7082037925720215
aF116.56504821777344
aa.(lp1
(lp2
F415.41879272460938
aF23.496475219726562
aF10.812511444091797
aF103.64495086669922
aF109.8406982421875
aa(lp3
F431.0294189453125
aF27.382368087768555
aF2.4733874797821045
aF21.023796081542969
aF115.34617614746094
aa(lp4
F489.239990234375
aF31.319984436035156
aF1.2000000476837158
aF9.1999998092651367
aF143.13010406494141
aa(lp5
F454.30856323242188
aF13.306610107421875
aF8.092686653137207
aF40.859073638916016
aF127.69424057006836
aa(lp6
F437.9661865234375
aF4.5472898483276367
aF1.1624763011932373
aF10.578535079956055
aF125.53768157958984
aa(lp7
F444.00003051757812
aF35.499988555908203
aF0.89442712068557739
aF4.0249223709106445
aF116.56504821777344
aa(lp8
F462.86209106445312
aF32.155189514160156
aF8.5349197387695312
aF1.1817581653594971
aF23.198593139648438
aa(lp9
F481.48995971679688
aF37.92999267578125
aF9.1923885345458984
aF0.84852820634841919
aF81.869897842407227
aa(lp10
F366.70004272460938
aF2.1000156402587891
aF2.2360680103302002
aF0.4472135603427887
aF26.565048217773438
aa.(lp1
(lp2
F420.93701171875
aF10.947727203369141
aF31.636381149291992
aF105.57541656494141
aF111.25050354003906
aa(lp3
F440.06488037109375
aF6.9108095169067383
aF1.5439510345458984
aF19.997837066650391
aF126.02737808227539
aa(lp4
F462.22418212890625
aF31.810356140136719
aF7.6157741546630859
aF1.5756775140762329
aF23.198593139648438
aa.(lp1
(lp2
F412.08233642578125
aF9.8410005569458008
aF33.575691223144531
aF98.992156982421875
aF113.29456329345703
aa(lp3
F430.29998779296875
aF2.0999999046325684
aF1
aF5
aF126.86989974975586
aa(lp4
F402.90005493164062
aF13.300000190734863
aF0.63245546817779541
aF6.3245549201965332
aF108.43495178222656
aa.(lp1
(lp2
F407.6153564453125
aF12.076930046081543
aF31.439054489135742
aF100.19158935546875
aF112.38013458251953
aa(lp3
F398.54879760742188
aF13.939021110534668
aF1.7179114818572998
aF7.9648618698120117
aF128.65980529785156
aa(lp4
F448.90005493164062
aF20.700010299682617
aF0.4472135603427887
aF2.2360680103302002
aF116.56504821777344
aa.(lp1
(lp2
F422.60000610351562
aF19.799999237060547
aF34.882659912109375
aF135.95292663574219
aF116.56504821777344
aa(lp3
F391.20004272460938
aF12.400009155273438
aF2.5298223495483398
aF10.751744270324707
aF108.43495178222656
aa(lp4
F419.8902587890625
aF2.5122256278991699
aF1.2493901252746582
aF6.4031243324279785
aF128.65980529785156
aa(lp5
F470.00003051757812
aF30.500022888183594
aF0.89442706108093262
aF4.9193496704101562
aF116.56504821777344
aa(lp6
F465.93997192382812
aF41.079986572265625
aF8.0610179901123047
aF0.98994958400726318
aF81.869897842407227
aa.(lp1
(lp2
F413.6116943359375
aF20.137741088867188
aF35.163848876953125
aF133.94865417480469
aF117.75854110717773
aa(lp3
F417.63372802734375
aF7.8366127014160156
aF1.4775545597076416
aF22.022600173950195
aF129.28940582275391
aa(lp4
F375
aF10
aF12
aF2
aF90
aa.