(lp1
(lp2
F387.84597778320312
aF95.229690551757812
aF189.36007690429688
aF24.378873825073242
aF1.8986053466796875
aa(lp3
F404.09906005859375
aF158.44068908691406
aF50.237030029296875
aF8.3660850524902344
aF6.9810562133789062
aa(lp4
F433.64224243164062
aF65.069549560546875
aF131.60197448730469
aF8.5516166687011719
aF16.364913940429688
aa(lp5
F402.4000244140625
aF31.799999237060547
aF34.785053253173828
aF1.897367000579834
aF18.434951782226562
aa(lp6
F405.7691650390625
aF127.34615325927734
aF6.3790526390075684
aF1.1094005107879639
aF33.6900634765625
aa(lp7
F382
aF112
aF20.880096435546875
aF0.88225769996643066
aF17.102729797363281
aa(lp8
F387.5660400390625
aF93.018875122070312
aF12.362447738647461
aF0.82416325807571411
aF15.945396423339844
aa(lp9
F390.69232177734375
aF79.538467407226562
aF7.0601806640625
aF0.78446453809738159
aF11.309928894042969
aa(lp10
F391.80001831054688
aF72.599990844726562
aF3.1622774600982666
aF0.63245546817779541
aF18.434951782226562
aa(lp11
F393.800048828125
aF62.599998474121094
aF3.1622774600982666
aF0.63245546817779541
aF18.434951782226562
aa.(lp1
(lp2
F387.82498168945312
aF95.200828552246094
aF189.29069519042969
aF24.324031829833984
aF1.86767578125
aa(lp3
F432.93936157226562
aF63.623947143554688
aF131.43606567382812
aF9.6491756439208984
aF15.751174926757812
aa(lp4
F403.9100341796875
aF158.13002014160156
aF49.497470855712891
aF8.9095449447631836
aF8.1301040649414062
aa(lp5
F405.75006103515625
aF127.75001525878906
aF5.6568536758422852
aF0.70710670948028564
aF45
aa(lp6
F402.25003051757812
aF31.749998092651367
aF34.785049438476562
aF1.5811386108398438
aF18.434951782226562
aa(lp7
F387.7353515625
aF92.058837890625
aF12.369317054748535
aF0.9701424241065979
aF14.036239624023438
aa.(lp1
(lp2
F388.00424194335938
aF95.74871826171875
aF190.26100158691406
aF25.07960319519043
aF1.6000289916992188
aa(lp3
F434.52731323242188
aF64.315261840820312
aF131.24368286132812
aF5.6181507110595703
aF17.878692626953125
aa(lp4
F404.20648193359375
aF157.99488830566406
aF51.351722717285156
aF8.4709911346435547
aF6.7098388671875
aa(lp5
F402.10000610351562
aF32.200004577636719
aF35.733730316162109
aF1.5811388492584229
aF18.434951782226562
aa(lp6
F406.38455200195312
aF126.92305755615234
aF4.9923019409179688
aF1.1094005107879639
aF33.6900634765625
aa.(lp1
(lp2
F388.06243896484375
aF95.751716613769531
aF190.25997924804688
aF24.934829711914062
aF1.5911407470703125
aa(lp3
F404.96340942382812
aF158.32928466796875
aF50.135913848876953
aF8.6136579513549805
aF6.3401870727539062
aa(lp4
F435.42913818359375
aF64.774116516113281
aF132.19674682617188
aF5.5596771240234375
aF17.676109313964844
aa(lp5
F406.38455200195312
aF126.92305755615234
aF4.9923019409179688
aF1.1094005107879639
aF33.6900634765625
aa(lp6
F384.14999389648438
aF107.05001068115234
aF14.546475410461426
aF0.94868320226669312
aF18.434951782226562
aa(lp7
F402.9840087890625
aF30.651247024536133
aF34.778861999511719
aF1.6703400611877441
aF17.354026794433594
aa(lp8
F388.38241577148438
aF90.970596313476562
aF10.429031372070312
aF0.72760689258575439
aF14.036239624023438
aa(lp9
F390.8846435546875
aF79.576919555664062
aF5.0990195274353027
aF0.78446453809738159
aF11.309928894042969
aa.(lp1
(lp2
F382.07550048828125
aF157.76414489746094
aF15.109663009643555
aF67.993476867675781
aF164.05460453033447
aa(lp3
F405.22708129882812
aF158.3951416015625
aF50.115486145019531
aF8.6091680526733398
aF6.9810562133789062
aa(lp4
F435.04190063476562
aF64.319969177246094
aF130.93669128417969
aF6.6005587577819824
aF17.878692626953125
aa(lp5
F390.75772094726562
aF62.187488555908203
aF125.15389251708984
aF4.4433331489562988
aF13.897178649902344
aa(lp6
F407.25006103515625
aF126.75001525878906
aF6.3639612197875977
aF1.4142134189605713
aF45
aa(lp7
F403.38848876953125
aF31.124849319458008
aF35.429058074951172
aF1.7000504732131958
aF17.818893432617188
aa(lp8
F383.68350219726562
aF110.0550537109375
aF23.083616256713867
aF1.149391770362854
aF16.699241638183594
aa(lp9
F391.30007934570312
aF80.400016784667969
aF3.1304950714111328
aF0.89442712068557739
aF26.565048217773438
aa(lp10
F388.61767578125
aF93.0294189453125
aF6.0633902549743652
aF0.72760689258575439
aF14.036239624023438
aa(lp11
F392.85299682617188
aF72.088233947753906
aF4.123105525970459
aF0.72760689258575439
aF14.036239624023438
aa.(lp1
(lp2
F382.53713989257812
aF158.22367858886719
aF15.134920120239258
aF69.281532287597656
aF164.66671562194824
aa(lp3
F432.68887329101562
aF66.2421875
aF135.98696899414062
aF11.169462203979492
aF18.61016845703125
aa(lp4
F405.46038818359375
aF158.39602661132812
aF50.249370574951172
aF7.9602971076965332
aF5.7105941772460938
aa(lp5
F390.79052734375
aF62.291763305664062
aF124.50965881347656
aF5.165285587310791
aF12.739646911621094
aa(lp6
F403.30001831054688
aF31.599996566772461
aF34.468826293945312
aF1.5811388492584229
aF18.434944152832031
aa(lp7
F383.73580932617188
aF109.92453002929688
aF22.801851272583008
aF1.0988843441009521
aF15.945396423339844
aa(lp8
F388.88238525390625
aF91.970596313476562
aF10.186495780944824
aF0.72760689258575439
aF14.036239624023438
aa(lp9
F391.11538696289062
aF81.423072814941406
aF5.0990195274353027
aF0.78446453809738159
aF11.309928894042969
aa.(lp1
(lp2
F390.03286743164062
aF94.756675720214844
aF188.2384033203125
aF25.16777229309082
aF1.6459732055664062
aa(lp3
F436.63067626953125
aF64.475120544433594
aF130.9427490234375
aF7.2154679298400879
aF17.300521850585938
aa(lp4
F406.410888671875
aF158.39109802246094
aF50.249370574951172
aF7.8607935905456543
aF5.7105941772460938
aa(lp5
F407.50006103515625
aF127.50001525878906
aF5.6568536758422852
aF1.4142134189605713
aF45
aa(lp6
F404.39910888671875
aF31.127719879150391
aF33.52532958984375
aF1.7524603605270386
aF17.744674682617188
aa(lp7
F389.7115478515625
aF91.442314147949219
aF9.2174577713012695
aF0.78446453809738159
aF11.309928894042969
aa(lp8
F392.89596557617188
aF76.571998596191406
aF17.262445449829102
aF1.0733128786087036
aF10.304847717285156
aa.(lp1
(lp2
F389.32232666015625
aF95.310935974121094
aF189.25001525878906
aF25.588539123535156
aF1.3245162963867188
aa(lp3
F406.17990112304688
aF158.5015869140625
aF50.358707427978516
aF8.4195947647094727
aF6.8427734375
aa(lp4
F436.812744140625
aF64.764205932617188
aF132.50144958496094
aF5.5236454010009766
aF18.285346984863281
aa(lp5
F407.38458251953125
aF127.92307281494141
aF4.9923019409179688
aF1.1094005107879639
aF33.6900634765625
aa(lp6
F404.39913940429688
aF31.627727508544922
aF34.477752685546875
aF1.4476847648620605
aF17.744674682617188
aa(lp7
F385.08621215820312
aF108.03448486328125
aF12.62728214263916
aF0.92847657203674316
aF21.801406860351562
aa(lp8
F389.96542358398438
aF90.626922607421875
aF11.401752471923828
aF0.96476370096206665
aF15.255119323730469
aa(lp9
F392.50006103515625
aF79.500007629394531
aF5.0596437454223633
aF0.63245546817779541
aF18.434951782226562
aa.(lp1
(lp2
F359.07955932617188
aF85.360923767089844
aF168.07524108886719
aF26.358757019042969
aF16.288780212402344
aa(lp3
F332.5
aF73.5
aF7
aF101
aF180
aa(lp4
F330.60348510742188
aF137.74139404296875
aF29.154172897338867
aF4.2709932327270508
aF21.801406860351562
aa(lp5
F335.09829711914062
aF10.513106346130371
aF19.361984252929688
aF1.6520464420318604
aF7.5946426391601562
aa.(lp1
(lp2
F343.78167724609375
aF84.702781677246094
aF171.69723510742188
aF26.806234359741211
aF7.305755615234375
aa(lp3
F327.70755004882812
aF133.7264404296875
aF20.591259002685547
aF5.2449436187744141
aF29.054603576660156
aa(lp4
F328.2513427734375
aF61.951446533203125
aF122.11956024169922
aF6.1642885208129883
aF1.5911407470703125
aa(lp5
F323.5
aF148.5
aF1
aF11
aF180
aa(lp6
F332.55404663085938
aF123.17567443847656
aF0.82199496030807495
aF7.0691566467285156
aF99.462326049804688
aa.(lp1
(lp2
F353.24639892578125
aF84.823822021484375
aF167.79960632324219
aF25.04412841796875
aF15.584396362304688
aa(lp3
F326.95574951171875
aF62.422866821289062
aF123.13877105712891
aF8.5033817291259766
aF2.1610794067382812
aa(lp4
F341.5
aF128
aF1
aF2
aF180
aa(lp5
F345.39999389648438
aF118.80001831054688
aF3.1622774600982666
aF1.8973664045333862
aF18.434951782226562
aa(lp6
F325.27032470703125
aF141.35530090332031
aF35.846588134765625
aF6.0686335563659668
aF22.7509765625
aa(lp7
F347.14706420898438
aF93.911773681640625
aF4.123105525970459
aF0.72760689258575439
aF14.036239624023438
aa(lp8
F349.08108520507812
aF83.013504028320312
aF8.2199497222900391
aF0.82199496030807495
aF9.4623260498046875
aa.(lp1
(lp2
F351.1309814453125
aF85.111343383789062
aF167.71455383300781
aF23.670490264892578
aF14.725479125976562
aa(lp3
F326.99996948242188
aF78.499984741210938
aF9.9999980926513672
aF154.99996948242188
aF180
aa(lp4
F340
aF143
aF4
aF24
aF180
aa.(lp1
(lp2
F352.35418701171875
aF87.684616088867188
aF172.87808227539062
aF26.400697708129883
aF15.219467163085938
aa(lp3
F325.15585327148438
aF61.441356658935547
aF121.05674743652344
aF7.4417171478271484
aF1.181182861328125
aa(lp4
F326.20687866210938
aF134.98275756835938
aF22.840526580810547
aF3.3425161838531494
aF21.801406860351562
aa(lp5
F355.25003051757812
aF9.2500009536743164
aF1.4142134189605713
aF0.70710670948028564
aF45
aa(lp6
F322.38238525390625
aF151.97061157226562
aF6.0633902549743652
aF0.72760689258575439
aF14.036239624023438
aa(lp7
F335.60000610351562
aF126.19999694824219
aF0.63245546817779541
aF3.1622774600982666
aF108.43495178222656
aa.(lp1
(lp2
F354.29998779296875
aF70.900001525878906
aF18.950462341308594
aF7.3539113998413086
aF8.1301040649414062
aa(lp3
F327.32281494140625
aF62.371200561523438
aF123.18258666992188
aF8.4525156021118164
aF2.3215255737304688
aa(lp4
F329.25
aF133.25001525878906
aF16.127616882324219
aF2.5298218727111816
aF18.434951782226562
aa(lp5
F358.16937255859375
aF30.336444854736328
aF59.205276489257812
aF5.6702651977539062
aF4.0141754150390625
aa(lp6
F324.79412841796875
aF143.67649841308594
aF1.6977493762969971
aF5.0932478904724121
aF165.96375560760498
aa(lp7
F342.17071533203125
aF138.46340942382812
aF11.043154716491699
aF0.88345223665237427
aF6.3401870727539062
aa(lp8
F347.64712524414062
aF129.91178894042969
aF18.432706832885742
aF2.1828205585479736
aF14.036239624023438
aa(lp9
F345.53271484375
aF112.00437164306641
aF18.238592147827148
aF1.057309627532959
aF7.5946426391601562
aa(lp10
F354.50003051757812
aF91.5
aF3.1304950714111328
aF0.4472135603427887
aF26.565048217773438
aa(lp11
F349.5
aF88.5
aF7.0335330963134766
aF0.72760689258575439
aF14.036239624023438
aa.(lp1
(lp2
F360.0423583984375
aF39.963874816894531
aF78.623786926269531
aF8.1063556671142578
aF4.5139923095703125
aa(lp3
F347.6719970703125
aF149.62948608398438
aF42.752555847167969
aF19.513315200805664
aF40.156002044677734
aa(lp4
F333.40789794921875
aF135.84933471679688
aF22.825424194335938
aF4.7753772735595703
aF28.810791015625
aa(lp5
F332.03750610351562
aF63.463432312011719
aF125.03986358642578
aF8.456146240234375
aF0.70731353759765625
aa(lp6
F335.25003051757812
aF124.75001525878906
aF0.70710670948028564
aF1.4142134189605713
aF135
aa(lp7
F355.79412841796875
aF46.176467895507812
aF1.4552137851715088
aF4.123105525970459
aF165.96375560760498
aa(lp8
F354.70004272460938
aF118.10000610351562
aF2.2360680103302002
aF0.4472135603427887
aF26.565048217773438
aa(lp9
F349.17568969726562
aF114.44594573974609
aF7.0691566467285156
aF0.82199496030807495
aF9.4623260498046875
aa(lp10
F355.26470947265625
aF112.44118499755859
aF5.0932478904724121
aF0.72760689258575439
aF14.036239624023438
aa(lp11
F351.7884521484375
aF101.05768585205078
aF6.0795998573303223
aF0.78446453809738159
aF11.309928894042969
aa(lp12
F359.21340942382812
aF95.079261779785156
aF10.049270629882812
aF1.5460416078567505
aF6.3401870727539062
aa(lp13
F359.5
aF83.5
aF1
aF9
aF180
aa.