(lp1
(lp2
F294.020263671875
aF5.3716144561767578
aF9.4160585403442383
aF1.8599621057510376
aF35.537681579589844
aa(lp3
F297.5
aF7.5
aF1
aF7
aF180
aa(lp4
F288.5384521484375
aF22.807693481445312
aF1.1094003915786743
aF3.6055512428283691
aF146.30993270874023
aa(lp5
F291.14706420898438
aF11.088235855102539
aF8.4887466430664062
aF2.1828205585479736
aF75.96375560760498
aa.(lp1
(lp2
F291.10000610351562
aF8.8000144958496094
aF14.955816268920898
aF8.9734897613525391
aF57.52880859375
aa(lp3
F286.74655151367188
aF20.342456817626953
aF2.0690145492553711
aF12.993412017822266
aF155.55604553222656
aa.(lp1
(lp2
F290.83755493164062
aF6.4522285461425781
aF12.529965400695801
aF5.58660888671875
aF61.389537811279297
aa(lp3
F296.88235473632812
aF8.4705867767333984
aF7.2760686874389648
aF0.9701424241065979
aF14.036239624023438
aa(lp4
F297.75003051757812
aF1.2500001192092896
aF0.70710670948028564
aF1.4142134189605713
aF135
aa(lp5
F277.35006713867188
aF3.0499968528747559
aF0.63245546817779541
aF4.1109609603881836
aF161.56505012512207
aa.(lp1
(lp2
F292.64706420898438
aF5.9117722511291504
aF12.519396781921387
aF4.9734587669372559
aF59.036245346069336
aa(lp3
F302.46151733398438
aF12.807705879211426
aF3.6055512428283691
aF1.1094005107879639
aF33.6900634765625
aa(lp4
F279.75003051757812
aF1.2500001192092896
aF0.70710670948028564
aF1.4142134189605713
aF135
aa.(lp1
(lp2
F292.98110961914062
aF7.2864904403686523
aF9.6176919937133789
aF19.703271865844727
aF98.972625732421875
aa(lp3
F296.42306518554688
aF5.8846163749694824
aF11.371354103088379
aF4.1602516174316406
aF56.309932708740234
aa(lp4
F292.22415161132812
aF19.310337066650391
aF1.6712580919265747
aF10.770329475402832
aF158.19858932495117
aa.(lp1
(lp2
F294.52944946289062
aF10.882362365722656
aF4.850712776184082
aF12.611852645874023
aF104.03623962402344
aa(lp3
F300.16217041015625
aF4.9729728698730469
aF8.602325439453125
aF1.6274669170379639
aF35.537681579589844
aa(lp4
F304.11767578125
aF7.5294137001037598
aF7.2760686874389648
aF0.9701424241065979
aF14.036239624023438
aa(lp5
F293.34613037109375
aF8.2307624816894531
aF0.55470025539398193
aF3.6055512428283691
aF123.6900634765625
aa.(lp1
(lp2
F304.33184814453125
aF10.48908805847168
aF16.123973846435547
aF5.1543846130371094
aF82.405356407165527
aa(lp3
F312.0882568359375
aF2.8529486656188965
aF1.212678074836731
aF4.123105525970459
aF165.96375560760498
aa(lp4
F304.739990234375
aF8.3199806213378906
aF6.4000000953674316
aF1
aF53.130104064941406
aa(lp5
F314.90005493164062
aF16.700002670288086
aF0.4472135603427887
aF2.2360680103302002
aF116.56504821777344
aa.(lp1
(lp2
F308.58489990234375
aF10.547168731689453
aF14.834939002990723
aF5.2197003364562988
aF74.05460262298584
aa(lp3
F318.32357788085938
aF15.70588207244873
aF4.123105525970459
aF2.425356388092041
aF14.036239624023438
aa(lp4
F307.25003051757812
aF8.7499933242797852
aF6.3245549201965332
aF1.5811388492584229
aF71.565052032470703
aa(lp5
F315.94998168945312
aF2.3500075340270996
aF0.94868320226669312
aF3.1622774600982666
aF161.5650520324707
aa.(lp1
(lp2
F315.40243530273438
aF13.378050804138184
aF1.7669044733047485
aF9.0553855895996094
aF96.340187072753906
aa(lp3
F325
aF3.5000076293945312
aF0.94868320226669312
aF3.4785051345825195
aF161.5650520324707
aa.(lp1
(lp2
F309.75
aF3.25
aF2.1213202476501465
aF8.4852809906005859
aF135
aa(lp3
F330.61538696289062
aF3.423076868057251
aF1.1094003915786743
aF4.1602516174316406
aF146.30993270874023
aa(lp4
F321.41806030273438
aF13.401640892028809
aF1.8107148408889771
aF11.045360565185547
aF95.194427490234375
aa.(lp1
(lp2
F326.94509887695312
aF11.375375747680664
aF4.3034043312072754
aF18.35755729675293
aF119.35774993896484
aa(lp3
F341.50003051757812
aF5.0000004768371582
aF0.70710670948028564
aF2.1213202476501465
aF135
aa.(lp1
(lp2
F335.55679321289062
aF14.440546035766602
aF3.3084661960601807
aF14.557251930236816
aF107.10272979736328
aa(lp3
F347.00003051757812
aF5.0000157356262207
aF0.89442712068557739
aF2.683281421661377
aF153.43494987487793
aa.(lp1
(lp2
F347.88116455078125
aF16.807378768920898
aF2.7160723209381104
aF12.041254043579102
aF95.194427490234375
aa(lp3
F357.60003662109375
aF6.1999940872192383
aF0.89442712068557739
aF4.4721360206604004
aF153.43494987487793
aa.(lp1
(lp2
F364.06558227539062
aF14.721314430236816
aF12.131789207458496
aF2.5350008010864258
aF84.80557107925415
aa(lp3
F365.40985107421875
aF9.9918012619018555
aF7.8102502822875977
aF1.2803689241409302
aF50.194431304931641
aa(lp4
F372.25003051757812
aF2.7499849796295166
aF0.70710670948028564
aF1.4142134189605713
aF135
aa.(lp1
(lp2
F384.9000244140625
aF11.19999885559082
aF12.041595458984375
aF4.8166379928588867
aF4.7636489868164062
aa(lp3
F367.4461669921875
aF14.430769920349121
aF1.7364861965179443
aF9.1785707473754883
aF97.125015258789062
aa(lp4
F379.00003051757812
aF3.0000095367431641
aF0.89442712068557739
aF4.4721360206604004
aF116.56504821777344
aa.(lp1
(lp2
F387.56097412109375
aF3.9512155055999756
aF1.2493901252746582
aF7.8086886405944824
aF141.34019088745117
aa(lp3
F376.72970581054688
aF16.621618270874023
aF3.2879798412322998
aF12.165525436401367
aF99.462326049804688
aa(lp4
F360.00003051757812
aF3.5
aF0.70710670948028564
aF7.7781744003295898
aF135
aa(lp5
F367.75
aF10.250000953674316
aF0.70710670948028564
aF2.8284268379211426
aF135
aa(lp6
F395.07693481445312
aF18.384614944458008
aF5.88348388671875
aF1.9611613750457764
aF78.690067291259766
aa.(lp1
(lp2
F382
aF17.5
aF3
aF12
aF90
aa(lp3
F362.76922607421875
aF3.653831958770752
aF1.1094003915786743
aF6.3790526390075684
aF146.30993270874023
aa(lp4
F393.00006103515625
aF7.0000038146972656
aF0.89442712068557739
aF2.683281421661377
aF116.56504821777344
aa(lp5
F397.91180419921875
aF19.147064208984375
aF4.123105525970459
aF0.72760689258575439
aF75.96375560760498
aa.(lp1
(lp2
F390
aF16
aF2
aF12
aF90
aa(lp3
F395.62005615234375
aF12.340011596679688
aF32.600002288818359
aF59.400005340576172
aF126.86989593505859
aa(lp4
F391.75006103515625
aF11.750017166137695
aF7.0710678100585938
aF0.70710676908493042
aF45
aa(lp5
F398.84609985351562
aF11.230767250061035
aF4.9923019409179688
aF1.1094005107879639
aF33.6900634765625
aa.(lp1
(lp2
F399.20004272460938
aF6.5999860763549805
aF3.5777084827423096
aF0.89442712068557739
aF26.565048217773438
aa(lp3
F404.00006103515625
aF8.4999856948852539
aF2.1213202476501465
aF0.70710670948028564
aF45
aa(lp4
F406.00006103515625
aF4.4999699592590332
aF0.70710670948028564
aF2.1213202476501465
aF135
aa.(lp1
(lp2
F404.1280517578125
aF12.652437210083008
aF10.049270629882812
aF2.4294939041137695
aF83.65980863571167
aa(lp3
F419.40008544921875
aF16.700010299682617
aF0.89442712068557739
aF3.1304950714111328
aF116.56504821777344
aa(lp4
F413.30007934570312
aF6.4000072479248047
aF3.1304950714111328
aF0.89442712068557739
aF26.565048217773438
aa(lp5
F414.800048828125
aF1.899988055229187
aF0.89442712068557739
aF2.2360680103302002
aF116.56504821777344
aa.(lp1
(lp2
F407.5
aF12
aF2
aF11
aF90
aa(lp3
F419.60006713867188
aF1.2999849319458008
aF0.89442712068557739
aF3.1304950714111328
aF116.56504821777344
aa(lp4
F423.75006103515625
aF16.250017166137695
aF0.70710670948028564
aF1.4142134189605713
aF135
aa.(lp1
(lp2
F423.5
aF16.5
aF31
aF53
aF90
aa(lp3
F426.50003051757812
aF4.5000004768371582
aF2.8284268379211426
aF1.4142134189605713
aF45
aa.(lp1
(lp2
F423.60003662109375
aF11.300002098083496
aF7.2732377052307129
aF0.94868320226669312
aF71.56505012512207
aa(lp3
F431.70004272460938
aF5.1000008583068848
aF2.2360680103302002
aF0.4472135603427887
aF26.565048217773438
aa.(lp1
(lp2
F433.66796875
aF10.424004554748535
aF11.359226226806641
aF2.8621673583984375
aF79.69515323638916
aa(lp3
F450.25006103515625
aF14.750017166137695
aF0.70710670948028564
aF2.8284268379211426
aF135
aa(lp4
F440
aF15.5
aF29
aF50
aF90
aa.(lp1
(lp2
F436.5
aF10.5
aF3
aF11
aF90
aa(lp3
F443.4000244140625
aF10.699987411499023
aF25.043962478637695
aF54.112842559814453
aF116.56504821777344
aa.(lp1
(lp2
F447.75006103515625
aF7.7500009536743164
aF2.8284268379211426
aF0.70710670948028564
aF45
aa(lp3
F453.9000244140625
aF2.200000524520874
aF2.2360680103302002
aF0.89442712068557739
aF26.565048217773438
aa(lp4
F458.10006713867188
aF14.70000171661377
aF2.2360680103302002
aF0.4472135603427887
aF63.43494987487793
aa.(lp1
(lp2
F464.80007934570312
aF11.900004386901855
aF0.89442712068557739
aF2.2360680103302002
aF116.56504821777344
aa(lp3
F457.5
aF2
aF2
aF1
aF0
aa.(lp1
(lp2
F471.57693481445312
aF6.884615421295166
aF5.0990195274353027
aF0.78446453809738159
aF78.690067291259766
aa.(lp1
(lp2
F469.300048828125
aF10.600028038024902
aF5.3665633201599121
aF1.3416407108306885
aF63.43494987487793
aa(lp3
F469.5
aF8
aF14
aF25
aF90
aa(lp4
F473.55404663085938
aF6.8243241310119629
aF7.0691566467285156
aF0.82199490070343018
aF80.537677764892578
aa.(lp1
(lp2
F476.92999267578125
aF4.0099964141845703
aF8.0610179901123047
aF1.1313709020614624
aF81.869897842407227
aa(lp3
F474.25003051757812
aF7.7500009536743164
aF0.70710670948028564
aF1.4142134189605713
aF135
aa.(lp1
(lp2
F471.50006103515625
aF12.000000953674316
aF0.70710670948028564
aF2.1213202476501465
aF135
aa(lp3
F475.00006103515625
aF7.0000009536743164
aF0.89442712068557739
aF2.683281421661377
aF153.43494987487793
aa(lp4
F489.75006103515625
aF11.249985694885254
aF0.70710670948028564
aF1.4142134189605713
aF135
aa(lp5
F472.75006103515625
aF8.7499856948852539
aF1.4142134189605713
aF0.70710670948028564
aF45
aa.(lp1
(lp2
F481.5
aF10.5
aF19
aF33
aF90
aa(lp3
F480.58200073242188
aF2.5983572006225586
aF1.8107148408889771
aF11.045360565185547
aF95.194427490234375
aa.(lp1
(lp2
F480.5
aF11.5
aF21
aF39
aF90
aa(lp3
F482.42996215820312
aF1.5099995136260986
aF9.1923885345458984
aF1.6970564126968384
aF81.869897842407227
aa.(lp1
(lp2
F491
aF10.5
aF32
aF19
aF90
aa.(lp1
(lp2
F498.5
aF10.5
aF39
aF19
aF90
aa(lp3
F492.00006103515625
aF2.4999849796295166
aF2.1213202476501465
aF0.70710670948028564
aF45
aa.(lp1
(lp2
F493.75006103515625
aF1.7500154972076416
aF1.4142134189605713
aF0.70710670948028564
aF45
aa(lp3
F504
aF9
aF28
aF16
aF90
aa.(lp1
(lp2
F501
aF8.5
aF46
aF15
aF90
aa.(lp1
(lp2
F506
aF7.5
aF13
aF40
aF90
aa.(lp1
(lp2
F512.5
aF5
aF8
aF21
aF90
aa.(lp1
(lp2
F503
aF6.5
aF11
aF24
aF90
aa.(lp1
(lp2
F11.984616279602051
aF64.72308349609375
aF25.495100021362305
aF6.6679491996765137
aF41.820167541503906
aa(lp3
F10.129822731018066
aF44.929306030273438
aF2.4843990802764893
aF19.723085403442383
aF120.46554565429688
aa(lp4
F6.4634151458740234
aF7.1707324981689453
aF12.806248664855957
aF3.7481703758239746
aF38.659805297851562
aa.(lp1
(lp2
F10.787838935852051
aF117.12806701660156
aF15.593049049377441
aF73.218948364257812
aF176.86364150047302
aa.(lp1
(lp2
F7.0000038146972656
aF114.5
aF8.5419855117797852
aF3.8996016979217529
aF68.198593139648438
aa(lp3
F32.376449584960938
aF115.85015869140625
aF38.745597839355469
aF79.711944580078125
aF160.14478492736816
aa(lp4
F10.128049850463867
aF152.84756469726562
aF2.3190624713897705
aF18.110771179199219
aF96.340187072753906
aa.(lp1
(lp2
F102
aF100
aF0.78446453809738159
aF12.159199714660645
aF101.30992889404297
aa.(lp1
(lp2
F106.96000671386719
aF100.72000122070312
aF0.89442735910415649
aF16.27857780456543
aF100.30484771728516
aa.(lp1
(lp2
F113.91176605224609
aF100.85295104980469
aF0.72760689258575439
aF4.123105525970459
aF104.03623962402344
aa.(lp1
(lp2
F130.4615478515625
aF102.69231414794922
aF0.78446453809738159
aF7.0601806640625
aF101.30992889404297
aa.(lp1
(lp2
F103.5
aF141
aF2
aF1
aF0
aa(lp3
F160.90000915527344
aF101.70001220703125
aF0.4472135603427887
aF2.2360680103302002
aF116.56504821777344
aa(lp4
F146.9119873046875
aF102.98399353027344
aF1.0733128786087036
aF16.27857780456543
aF100.30484771728516
aa.(lp1
(lp2
F111.5
aF142
aF2
aF1
aF0
aa.(lp1
(lp2
F140.86190795898438
aF129.09085083007812
aF66.604598999023438
aF39.08648681640625
aF2.2025985717773438
aa.(lp1
(lp2
F145
aF128.5
aF34
aF69
aF180
aa.(lp1
(lp2
F152
aF122
aF20
aF44
aF180
aa.(lp1
(lp2
F336.689697265625
aF50.224128723144531
aF21.665565490722656
aF37.159725189208984
aF113.19859313964844
aa.(lp1
(lp2
F6.8699097633361816
aF123.73190307617188
aF21.071361541748047
aF10.749724388122559
aF2.7263107299804688
aa.(lp1
(lp2
F343.42245483398438
aF104.18103790283203
aF8.9288387298583984
aF15.625469207763672
aF113.19859313964844
aa.(lp1
(lp2
F364.9705810546875
aF135.11764526367188
aF109.86865234375
aF27.649065017700195
aF14.036239624023438
aa(lp3
F55.939994812011719
aF131.41998291015625
aF19.233304977416992
aF33.375446319580078
aF98.130104064941406
aa.(lp1
(lp2
F389.5
aF155
aF2
aF1
aF0
aa.(lp1
(lp2
F127.5
aF147
aF67
aF20
aF90
aa(lp3
F118.78678894042969
aF130.30377197265625
aF8.5387001037597656
aF48.836460113525391
aF100.61965179443359
aa(lp4
F104.98078155517578
aF140.59614562988281
aF0.78446453809738159
aF8.0407619476318359
aF101.30992889404297
aa.(lp1
(lp2
F147
aF139.5
aF40
aF23
aF90
aa(lp3
F138.96998596191406
aF143.70999145507812
aF0.84852820634841919
aF10.04091739654541
aF98.130104064941406
aa.(lp1
(lp2
F162.39999389648438
aF139.69999694824219
aF20.57182502746582
aF35.329872131347656
aF116.56504821777344
aa.(lp1
(lp2
F175.32693481445312
aF126.13460540771484
aF11.178619384765625
aF1.9611613750457764
aF78.690067291259766
aa.(lp1
(lp2
F186.88233947753906
aF150.47061157226562
aF0.9701424241065979
aF8.246211051940918
aF104.03623962402344
aa.(lp1
(lp2
F208.13261413574219
aF153.28379821777344
aF45.83502197265625
aF18.472204208374023
aF28.926422119140625
aa(lp3
F187.67242431640625
aF158.93106079101562
aF14.034687042236328
aF1.8270007371902466
aF4.7636489868164062
aa(lp4
F198.75
aF152.74998474121094
aF3.2584731578826904
aF13.033892631530762
aF120.96374893188477
aa(lp5
F192.75
aF130.75
aF1.4142134189605713
aF0.70710670948028564
aF45
aa(lp6
F201.541015625
aF131.0491943359375
aF0.90535742044448853
aF11.045360565185547
aF95.194427490234375
aa.(lp1
(lp2
F228.53657531738281
aF133.17073059082031
aF0.88345223665237427
aF11.043154716491699
aF96.340187072753906
aa.(lp1
(lp2
F262.39230346679688
aF146.06155395507812
aF24.186771392822266
aF11.65926456451416
aF60.255117416381836
aa(lp3
F260.0286865234375
aF135.18443298339844
aF0.90535742044448853
aF14.033040046691895
aF95.194427490234375
aa.