(lp1
(lp2
F76.832847595214844
aF19.951183319091797
aF157.14088439941406
aF43.29669189453125
aF67.619863510131836
aa(lp3
F312.79412841796875
aF57.176479339599609
aF31.529634475708008
aF108.41343688964844
aF165.96375560760498
aa(lp4
F348.75741577148438
aF69.574256896972656
aF35.423320770263672
aF140.99676513671875
aF174.28940629959106
aa(lp5
F70.75
aF12.249999046325684
aF0.70710670948028564
aF9.8994951248168945
aF135
aa(lp6
F346.76351928710938
aF109.66891479492188
aF8.8348207473754883
aF2.2087054252624512
aF54.462326049804688
aa(lp7
F72.750007629394531
aF10.250000953674316
aF0.70710670948028564
aF4.242640495300293
aF135
aa.(lp1
(lp2
F318.61557006835938
aF57.830852508544922
aF22.116546630859375
aF112.27157592773438
aF162.21611022949219
aa(lp3
F82.446701049804688
aF22.253803253173828
aF161.40704345703125
aF43.438407897949219
aF67.479434967041016
aa(lp4
F73.942611694335938
aF14.631147384643555
aF1.1523318290710449
aF7.8102502822875977
aF140.19443130493164
aa(lp5
F77.378379821777344
aF14.729729652404785
aF1.1624764204025269
aF9.9972972869873047
aF144.46232223510742
aa(lp6
F314.75003051757812
aF50.250007629394531
aF0.70710670948028564
aF4.242640495300293
aF135
aa(lp7
F347.60000610351562
aF113.30000305175781
aF0.89442712068557739
aF3.1304950714111328
aF116.56504821777344
aa(lp8
F350.60000610351562
aF110.30002593994141
aF7.2732377052307129
aF0.94868320226669312
aF71.56505012512207
aa(lp9
F348.66207885742188
aF54.273265838623047
aF7.685112476348877
aF111.59613800048828
aF161.09542465209961
aa.(lp1
(lp2
F325.42880249023438
aF58.26513671875
aF17.387546539306641
aF115.10819244384766
aF161.08892059326172
aa(lp3
F358.37045288085938
aF71.818634033203125
aF34.919605255126953
aF145.55867004394531
aF174.33629369735718
aa(lp4
F90.017677307128906
aF24.317047119140625
aF161.36451721191406
aF44.182598114013672
aF65.772254943847656
aa(lp5
F320.12942504882812
aF51.317646026611328
aF2.386235237121582
aF10.629592895507812
aF139.39870071411133
aa(lp6
F343.7359619140625
aF108.47753143310547
aF1.8019965887069702
aF9.4339809417724609
aF147.9946174621582
aa(lp7
F45.058822631835938
aF28.235296249389648
aF6.3059263229370117
aF0.9701424241065979
aF75.96375560760498
aa(lp8
F77.250007629394531
aF17.750003814697266
aF0.70710676908493042
aF8.4852809906005859
aF135
aa(lp9
F80
aF17.5
aF0.70710670948028564
aF6.3639612197875977
aF135
aa(lp10
F78.5
aF12
aF3.5355339050292969
aF0.70710670948028564
aF45
aa.(lp1
(lp2
F326.90191650390625
aF57.473155975341797
aF18.195207595825195
aF113.21660614013672
aF160.92490196228027
aa(lp3
F86.939697265625
aF24.629768371582031
aF159.71415710449219
aF43.676048278808594
aF65.157609939575195
aa(lp4
F321.260009765625
aF49.679996490478516
aF2
aF10.200000762939453
aF143.13010406494141
aa(lp5
F360.87228393554688
aF70.641616821289062
aF35.193447113037109
aF142.55470275878906
aF175.31410026550293
aa(lp6
F78.500007629394531
aF19.000003814697266
aF0.70710659027099609
aF7.7781744003295898
aF135
aa(lp7
F93.000007629394531
aF2.9999966621398926
aF7.0710678100585938
aF1.4142134189605713
aF45
aa(lp8
F80.804878234863281
aF17.756101608276367
aF0.93704259395599365
aF7.8086886405944824
aF141.34019088745117
aa(lp9
F80.76922607421875
aF11.153841018676758
aF4.9923019409179688
aF1.1094003915786743
aF56.309932708740234
aa(lp10
F360.20004272460938
aF107.90000915527344
aF6.7082037925720215
aF0.89442712068557739
aF63.43494987487793
aa(lp11
F347
aF109.00001525878906
aF1.4142135381698608
aF7.0710678100585938
aF135
aa(lp12
F47.56756591796875
aF27.905406951904297
aF7.0691566467285156
aF0.98639392852783203
aF80.537677764892578
aa(lp13
F358.25003051757812
aF79.750007629394531
aF0.70710670948028564
aF1.4142134189605713
aF135
aa(lp14
F56.576927185058594
aF25.884614944458008
aF5.0990195274353027
aF0.78446453809738159
aF78.690067291259766
aa.(lp1
(lp2
F49.67547607421875
aF24.964149475097656
aF90.362808227539062
aF20.394598007202148
aF47.489551544189453
aa(lp3
F326.45477294921875
aF50.653221130371094
aF16.942852020263672
aF98.97979736328125
aF161.74810409545898
aa(lp4
F365.4000244140625
aF110.30003356933594
aF12.074767112731934
aF4.4721360206604004
aF63.43494987487793
aa(lp5
F358.32369995117188
aF48.895954132080078
aF8.6362600326538086
aF102.41107177734375
aF162.18111228942871
aa(lp6
F102.9166259765625
aF34.182182312011719
aF137.64083862304688
aF19.594474792480469
aF69.590114593505859
aa(lp7
F354.10775756835938
aF101.95305633544922
aF2.4528708457946777
aF15.534847259521484
aF138.01278686523438
aa(lp8
F377.8780517578125
aF108.59759521484375
aF1.2493901252746582
aF9.2142524719238281
aF141.34019088745117
aa(lp9
F368.1600341796875
aF103.62001800537109
aF15.600001335144043
aF6.2000002861022949
aF36.869895935058594
aa(lp10
F321.86318969726562
aF45.853763580322266
aF3.2052428722381592
aF11.266915321350098
aF150.94539451599121
aa(lp11
F80.865852355957031
aF17.707321166992188
aF1.0932164192199707
aF7.8086886405944824
aF141.34019088745117
aa(lp12
F352.0621337890625
aF107.84911346435547
aF3.769230842590332
aF13.923078536987305
aF157.38013458251953
aa(lp13
F94.5
aF2.9999997615814209
aF6.2609901428222656
aF1.3416407108306885
aF63.43494987487793
aa(lp14
F78.433639526367188
aF19.004426956176758
aF1.3170092105865479
aF10.630146026611328
aF131.1859245300293
aa(lp15
F346.5
aF34.5
aF3
aF1
aF90
aa.(lp1
(lp2
F367.89242553710938
aF124.86873626708984
aF20.534805297851562
aF52.386390686035156
aF126.63410949707031
aa(lp3
F338.95068359375
aF57.9476318359375
aF26.070478439331055
aF115.9385986328125
aF150.75117301940918
aa(lp4
F367.53610229492188
aF62.703262329101562
aF9.8792695999145508
aF132.07450866699219
aF158.62937545776367
aa(lp5
F90.54974365234375
aF24.203550338745117
aF153.48237609863281
aF42.536636352539062
aF67.520563125610352
aa(lp6
F369.85369873046875
aF111.18295288085938
aF20.146415710449219
aF6.246950626373291
aF38.659805297851562
aa(lp7
F388.84146118164062
aF106.57317352294922
aF2.0302588939666748
aF14.836508750915527
aF128.65980529785156
aa(lp8
F353.20004272460938
aF41.600002288818359
aF3.1622776985168457
aF10.751743316650391
aF161.5650520324707
aa(lp9
F332.00003051757812
aF51.500007629394531
aF2.1213202476501465
aF9.1923885345458984
aF135
aa(lp10
F58.176464080810547
aF26.794116973876953
aF10.195732116699219
aF1.8439091444015503
aF77.471192359924316
aa(lp11
F80.250007629394531
aF19.249998092651367
aF1.4142134189605713
aF9.1923885345458984
aF135
aa(lp12
F47.700004577636719
aF30.100004196166992
aF3.1622774600982666
aF1.2649109363555908
aF71.565052032470703
aa(lp13
F83.580009460449219
aF19.44000244140625
aF0.80000007152557373
aF8.6000003814697266
aF143.13010406494141
aa(lp14
F348.25003051757812
aF25.750019073486328
aF0.70710670948028564
aF1.4142134189605713
aF135
aa(lp15
F393.77996826171875
aF123.53999328613281
aF9.0509672164916992
aF0.84852820634841919
aF8.1301040649414062
aa.(lp1
(lp2
F464.63482666015625
aF52.381404876708984
aF26.759410858154297
aF106.26504516601562
aF146.50481796264648
aa(lp3
F415.66079711914062
aF35.356147766113281
aF8.5898885726928711
aF86.76177978515625
aF138.17982864379883
aa(lp4
F396.17642211914062
aF7.2058792114257812
aF1.3038403987884521
aF13.882065773010254
aF147.52880859375
aa.(lp1
(lp2
F466.5628662109375
aF58.950046539306641
aF17.322475433349609
aF54.616977691650391
aF141.51980590820312
aa(lp3
F409.2762451171875
aF29.667449951171875
aF17.738058090209961
aF73.0068359375
aF126.0850715637207
aa(lp4
F469.84030151367188
aF101.088623046875
aF12.396176338195801
aF42.755115509033203
aF100.7843017578125
aa(lp5
F438.76300048828125
aF63.152805328369141
aF11.574624061584473
aF34.079044342041016
aF178.15238976478577
aa(lp6
F442.58621215820312
aF19.465522766113281
aF14.484235763549805
aF36.210590362548828
aF158.19859313964844
aa(lp7
F392.38458251953125
aF7.5769166946411133
aF1.1094003915786743
aF5.8243522644042969
aF146.30993270874023
aa.(lp1
(lp2
F465.32568359375
aF100.98995971679688
aF10.927701950073242
aF38.461227416992188
aF97.696044921875
aa(lp3
F409.25003051757812
aF32.750003814697266
aF0.70710676908493042
aF7.0710678100585938
aF135
aa(lp4
F386.33843994140625
aF4.5923080444335938
aF1.2403472661972046
aF8.5583953857421875
aF150.25511741638184
aa(lp5
F394.60006713867188
aF15.300002098083496
aF0.89442712068557739
aF3.1304950714111328
aF116.56504821777344
aa(lp6
F626.41998291015625
aF37.05999755859375
aF14.142135620117188
aF0.84852820634841919
aF8.1301040649414062
aa.(lp1
(lp2
F395.7977294921875
aF30.579921722412109
aF8.9261054992675781
aF72.943649291992188
aF136.63657760620117
aa(lp3
F464.88699340820312
aF61.092639923095703
aF2.0299978256225586
aF35.343719482421875
aF133.53120040893555
aa(lp4
F434.49468994140625
aF82.820358276367188
aF12.326603889465332
aF55.743175506591797
aF157.75097465515137
aa(lp5
F463.09555053710938
aF102.6751708984375
aF28.053539276123047
aF6.3530921936035156
aF87.954591751098633
aa(lp6
F382.65383911132812
aF7.2307558059692383
aF1.3867506980895996
aF14.422204971313477
aF146.30993270874023
aa(lp7
F466.50006103515625
aF95
aF1.6000001430511475
aF16.200002670288086
aF143.13010406494141
aa(lp8
F432.25003051757812
aF45.249992370605469
aF3.4785051345825195
aF6.9570102691650391
aF108.43495178222656
aa(lp9
F439.86923217773438
aF41.353828430175781
aF6.9459443092346191
aF33.613410949707031
aF119.7448844909668
aa(lp10
F391.25003051757812
aF18.250001907348633
aF1.4142134189605713
aF9.1923885345458984
aF135
aa(lp11
F434.28366088867188
aF15.60392951965332
aF27.432863235473633
aF11.018115997314453
aF12.994621276855469
aa(lp12
F476.9263916015625
aF83.469551086425781
aF0.9262116551399231
aF15.033127784729004
aF175.91438341140747
aa.(lp1
(lp2
F410.65380859375
aF59.769195556640625
aF22.083759307861328
aF143.54440307617188
aF135.28224182128906
aa(lp3
F457.00006103515625
aF63.000007629394531
aF18.384777069091797
aF60.811176300048828
aF135
aa(lp4
F407.80490112304688
aF41.756084442138672
aF1.5617375373840332
aF26.237192153930664
aF141.34019088745117
aa(lp5
F386.19671630859375
aF16.336074829101562
aF1.6644793748855591
aF10.755098342895508
aF140.19443130493164
aa(lp6
F430.76937866210938
aF23.386533737182617
aF7.1910171508789062
aF44.993793487548828
aF177.13759469985962
aa(lp7
F378.50003051757812
aF5.4999966621398926
aF1.3416407108306885
aF10.28591251373291
aF153.43494987487793
aa(lp8
F445.08828735351562
aF46.147068023681641
aF1.6977494955062866
aF10.429031372070312
aF104.03623962402344
aa(lp9
F426
aF44
aF2
aF4
aF180
aa(lp10
F396.30007934570312
aF32.400009155273438
aF3.1304950714111328
aF0.89442712068557739
aF26.565048217773438
aa(lp11
F632
aF34.5
aF12
aF25
aF180
aa(lp12
F419.800048828125
aF55.900001525878906
aF0.89442712068557739
aF2.2360680103302002
aF116.56504821777344
aa(lp13
F630.60980224609375
aF34.512195587158203
aF15.018688201904297
aF0.88345223665237427
aF6.3401870727539062
aa.(lp1
(lp2
F404.8216552734375
aF58.650840759277344
aF25.328466415405273
aF141.40057373046875
aF133.29018402099609
aa(lp3
F432.32144165039062
aF43.444252014160156
aF27.259340286254883
aF83.000701904296875
aF148.15094757080078
aa(lp4
F378.97833251953125
aF13.515914916992188
aF1.935371994972229
aF30.804672241210938
aF143.74616241455078
aa(lp5
F466.00006103515625
aF98.500015258789062
aF2.1213202476501465
aF0.70710670948028564
aF45
aa(lp6
F464.50003051757812
aF88.499992370605469
aF3.1304950714111328
aF0.4472135603427887
aF26.565048217773438
aa(lp7
F464.5
aF80.5
aF1
aF7
aF180
aa(lp8
F633
aF34.5
aF10
aF19
aF180
aa.(lp1
(lp2
F394.58517456054688
aF58.9200439453125
aF28.8099365234375
aF138.48297119140625
aF133.22853088378906
aa(lp3
F370.64324951171875
aF13.759448051452637
aF1.4704294204711914
aF30.80549430847168
aF143.97262191772461
aa(lp4
F417
aF41
aF8
aF2
aF90
aa(lp5
F447.48001098632812
aF65.360015869140625
aF1.6000000238418579
aF10
aF126.86989974975586
aa(lp6
F434.3740234375
aF44.985870361328125
aF13.537440299987793
aF96.485939025878906
aF149.53445434570312
aa(lp7
F407.65377807617188
aF44.730781555175781
aF4.7149519920349121
aF2.4961509704589844
aF56.3099365234375
aa(lp8
F406.25006103515625
aF41.249988555908203
aF1.4142134189605713
aF0.70710670948028564
aF45
aa(lp9
F416
aF37.5
aF1
aF10
aF90
aa.(lp1
(lp2
F341.48773193359375
aF15.405559539794922
aF1.7641018629074097
aF35.608749389648438
aF141.63251495361328
aa(lp3
F381.64999389648438
aF10.950006484985352
aF0.63245546817779541
aF4.1109609603881836
aF161.56505012512207
aa.(lp1
(lp2
F377.31085205078125
aF42.318649291992188
aF51.466819763183594
aF122.08074188232422
aF149.74355888366699
aa(lp3
F341.14495849609375
aF15.38847541809082
aF1.829132080078125
aF36.399730682373047
aF142.4314079284668
aa(lp4
F358.76919555664062
aF38.653861999511719
aF1.1094002723693848
aF8.0431528091430664
aF146.3099365234375
aa(lp5
F371.4000244140625
aF36.79998779296875
aF9.8386993408203125
aF4.4721355438232422
aF63.43494987487793
aa(lp6
F353.46002197265625
aF33.779998779296875
aF3
aF5.8000006675720215
aF143.13010406494141
aa.(lp1
(lp2
F341.44000244140625
aF17.920028686523438
aF3.2000000476837158
aF40.799999237060547
aF143.13010406494141
aa(lp3
F376.27587890625
aF73.689659118652344
aF5.199470043182373
aF35.282119750976562
aF158.19859313964844
aa(lp4
F343.52496337890625
aF23.997137069702148
aF12.930703163146973
aF57.627895355224609
aF128.50065231323242
aa(lp5
F380.90939331054688
aF19.516084671020508
aF35.209548950195312
aF15.102276802062988
aF8.3658905029296875
aa(lp6
F376.51351928710938
aF32.418918609619141
aF2.6303837299346924
aF8.7131471633911133
aF99.462326049804688
aa(lp7
F390
aF84
aF2
aF4
aF180
aa.(lp1
(lp2
F375.75387573242188
aF43.935253143310547
aF51.322868347167969
aF122.29671478271484
aF149.74356460571289
aa(lp3
F374.31036376953125
aF70.775863647460938
aF5.9422516822814941
aF36.210594177246094
aF158.19859313964844
aa(lp4
F374.27029418945312
aF32.621620178222656
aF13.151919364929199
aF2.9591817855834961
aF80.537678718566895
aa.(lp1
(lp2
F351.17367553710938
aF27.227890014648438
aF20.355670928955078
aF74.033668518066406
aF122.55001068115234
aa(lp3
F389.5
aF50
aF51
aF98
aF180
aa(lp4
F374.68246459960938
aF75.7518310546875
aF5.04071044921875
aF32.978202819824219
aF160.01689338684082
aa(lp5
F387.50003051757812
aF84.000007629394531
aF3.5355339050292969
aF0.70710670948028564
aF45
aa(lp6
F371.75
aF39.750003814697266
aF1.4142134189605713
aF0.70710670948028564
aF45
aa.(lp1
(lp2
F340.85272216796875
aF23.248590469360352
aF13.966470718383789
aF55.187896728515625
aF134.21517562866211
aa(lp3
F373.5
aF33.5
aF9
aF3
aF90
aa(lp4
F379.6981201171875
aF21.056606292724609
aF37.087348937988281
aF16.208545684814453
aF15.945396423339844
aa.(lp1
(lp2
F377.38238525390625
aF13.029409408569336
aF0.72760689258575439
aF6.0633902549743652
aF165.96375560760498
aa.(lp1
(lp2
F339.68093872070312
aF18.72599983215332
aF1.9040569067001343
aF42.433265686035156
aF144.68878936767578
aa.(lp1
(lp2
F340.28945922851562
aF19.648170471191406
aF1.8476368188858032
aF44.646171569824219
aF144.86580657958984
aa(lp3
F370.9803466796875
aF74.616378784179688
aF5.6684346199035645
aF33.038871765136719
aF158.62937927246094
aa(lp4
F383
aF85
aF2
aF4
aF180
aa.(lp1
(lp2
F341.6121826171875
aF23.762504577636719
aF15.062867164611816
aF51.623626708984375
aF135.83031463623047
aa(lp3
F366.53448486328125
aF32.586200714111328
aF16.155494689941406
aF5.1994695663452148
aF68.198589324951172
aa(lp4
F376.609375
aF19.896429061889648
aF36.125469207763672
aF13.50875186920166
aF12.875
aa.(lp1
(lp2
F338.99993896484375
aF18.000003814697266
aF1.6641006469726562
aF40.493114471435547
aF146.3099365234375
aa(lp3
F350.5
aF19
aF57
aF36
aF90
aa.(lp1
(lp2
F340.13726806640625
aF19.910484313964844
aF2.0029821395874023
aF44.939628601074219
aF146.8886604309082
aa.(lp1
(lp2
F369.65145874023438
aF44.584400177001953
aF49.671497344970703
aF120.16367340087891
aF152.81888961791992
aa(lp3
F365.80670166015625
aF71.4974365234375
aF5.6000733375549316
aF32.667095184326172
aF158.96248817443848
aa(lp4
F362.304931640625
aF39.756080627441406
aF6.4031243324279785
aF0.6246950626373291
aF51.340190887451172
aa.(lp1
(lp2
F340
aF19.499979019165039
aF1.9174118041992188
aF43.0267333984375
aF147.52880859375
aa.(lp1
(lp2
F352
aF17.5
aF50
aF33
aF90
aa(lp3
F338.64413452148438
aF17.226470947265625
aF1.9174127578735352
aF34.973602294921875
aF147.52880859375
aa.(lp1
(lp2
F339.7489013671875
aF18.654499053955078
aF1.8998533487319946
aF41.338188171386719
aF148.39249801635742
aa.(lp1
(lp2
F339.6673583984375
aF18.396976470947266
aF1.7688289880752563
aF40.8140869140625
aF148.39249801635742
aa.(lp1
(lp2
F339.55218505859375
aF18.468318939208984
aF1.8011589050292969
aF40.816108703613281
aF148.73626708984375
aa(lp3
F376.58108520507812
aF18.986492156982422
aF0.82199490070343018
aF10.028338432312012
aF170.53767776489258
aa.(lp1
(lp2
F341.22061157226562
aF21.367649078369141
aF1.7149868011474609
aF47.505115509033203
aF149.0362434387207
aa(lp3
F339.3768310546875
aF25.255250930786133
aF16.132383346557617
aF52.997871398925781
aF134.19307327270508
aa(lp4
F376.76275634765625
aF21.277381896972656
aF37.59173583984375
aF15.293002128601074
aF19.983108520507812
aa.(lp1
(lp2
F339.98529052734375
aF18.808818817138672
aF1.8864841461181641
aF40.816661834716797
aF149.03624534606934
aa(lp3
F375.74615478515625
aF9.4692306518554688
aF0.86824309825897217
aF11.039091110229492
aF172.87498331069946
aa.(lp1
(lp2
F339.1630859375
aF17.199090957641602
aF1.8001189231872559
aF37.215503692626953
aF149.4207763671875
aa(lp3
F375.80770874023438
aF6.9615345001220703
aF0.86824309825897217
aF10.04681396484375
aF172.87498331069946
aa.(lp1
(lp2
F342
aF21.999988555908203
aF1.7149848937988281
aF48.362598419189453
aF149.0362434387207
aa(lp3
F377.90536499023438
aF20.932432174682617
aF0.82199490070343018
aF6.0827627182006836
aF170.53767776489258
aa.(lp1
(lp2
F339.67431640625
aF18.689123153686523
aF1.757474422454834
aF40.310321807861328
aF149.85861396789551
aa.