(lp1
(lp2
F319.80001831054688
aF33.900001525878906
aF0.94868320226669312
aF4.1109609603881836
aF161.5650520324707
aa(lp3
F319.637939453125
aF28.65516471862793
aF0.74278146028518677
aF5.385164737701416
aF111.80140686035156
aa.(lp1
(lp2
F321.736083984375
aF37.444877624511719
aF46.138294219970703
aF14.37818431854248
aF46.789909362792969
aa(lp3
F306.7078857421875
aF30.93260383605957
aF18.867961883544922
aF4.8759903907775879
aF57.994617462158203
aa(lp4
F325.41461181640625
aF15.731707572937012
aF11.043154716491699
aF1.7669044733047485
aF83.65980863571167
aa(lp5
F310.20590209960938
aF49.323543548583984
aF4.123105525970459
aF1.6977493762969971
aF75.96375560760498
aa.(lp1
(lp2
F318.97845458984375
aF35.688526153564453
aF41.314369201660156
aF19.173017501831055
aF35.134193420410156
aa(lp3
F306.99334716796875
aF32.035793304443359
aF19.416486740112305
aF3.5536806583404541
aF55.491477966308594
aa(lp4
F319.5899658203125
aF34.3699951171875
aF7.0710678100585938
aF1.8384778499603271
aF8.1301040649414062
aa(lp5
F307.5
aF48.5
aF1
aF5
aF90
aa.(lp1
(lp2
F307.88070678710938
aF46.670051574707031
aF6.3409876823425293
aF14.249410629272461
aF94.085617065429688
aa(lp3
F311.25296020507812
aF25.388235092163086
aF9.4364757537841797
aF3.2539572715759277
aF77.471192359924316
aa(lp4
F319.91232299804688
aF36.578464508056641
aF19.137157440185547
aF4.8813619613647461
aF3.1798324584960938
aa(lp5
F301.2080078125
aF34.355995178222656
aF11.180341720581055
aF1.6099691390991211
aF10.304847717285156
aa(lp6
F318.25003051757812
aF31.249988555908203
aF1.4142134189605713
aF0.70710670948028564
aF45
aa.(lp1
(lp2
F305.57400512695312
aF30.559566497802734
aF18.025253295898438
aF3.7252192497253418
aF57.264774322509766
aa(lp3
F329.6600341796875
aF26.120010375976562
aF15
aF1.2000000476837158
aF36.869899749755859
aa(lp4
F323.39312744140625
aF13.217243194580078
aF13.038141250610352
aF2.6574556827545166
aF85.236358165740967
aa(lp5
F308.33935546875
aF47.567214965820312
aF17.464248657226562
aF7.3292584419250488
aF76.759481430053711
aa(lp6
F328.4034423828125
aF33.658618927001953
aF36.359149932861328
aF8.8019580841064453
aF31.328697204589844
aa(lp7
F311.40982055664062
aF45.991794586181641
aF7.8102502822875977
aF1.2803689241409302
aF50.194431304931641
aa.(lp1
(lp2
F309.02352905273438
aF48.105876922607422
aF18.656021118164062
aF10.412663459777832
aF77.47119140625
aa(lp3
F312.00003051757812
aF46.500003814697266
aF3.5355339050292969
aF0.70710670948028564
aF45
aa.(lp1
(lp2
F329.74002075195312
aF26.180009841918945
aF15
aF1.3999999761581421
aF36.869899749755859
aa(lp3
F309.50271606445312
aF46.762599945068359
aF19.416486740112305
aF9.7339954376220703
aF78.11134147644043
aa(lp4
F312.300048828125
aF46.400001525878906
aF3.1304950714111328
aF0.89442712068557739
aF26.565048217773438
aa(lp5
F318.25003051757812
aF35.750003814697266
aF0.70710670948028564
aF1.4142134189605713
aF135
aa.(lp1
(lp2
F317.07550048828125
aF28.735857009887695
aF45.261913299560547
aF21.368288040161133
aF60.945394515991211
aa(lp3
F329.97296142578125
aF26.337839126586914
aF14.995944976806641
aF1.7437145709991455
aF35.537677764892578
aa.(lp1
(lp2
F327.9000244140625
aF33.799991607666016
aF36.600006103515625
aF7.6000022888183594
aF36.869899749755859
aa(lp3
F310.5294189453125
aF47.617652893066406
aF20.615528106689453
aF12.611852645874023
aF75.96375560760498
aa(lp4
F323.40289306640625
aF12.238234519958496
aF15.032514572143555
aF2.684377908706665
aF85.601294994354248
aa(lp5
F307.85296630859375
aF24.911758422851562
aF10.429031372070312
aF2.1828205585479736
aF75.96375560760498
aa(lp6
F312.50003051757812
aF46.5
aF3.1304950714111328
aF0.4472135603427887
aF26.565048217773438
aa.(lp1
(lp2
F311.20001220703125
aF40.900009155273438
aF22.807895660400391
aF8.9442729949951172
aF63.43494987487793
aa(lp3
F330.73077392578125
aF25.153846740722656
aF12.203402519226074
aF1.9414503574371338
aF33.690071105957031
aa(lp4
F304.35406494140625
aF30.573699951171875
aF18.60107421875
aF7.2576446533203125
aF53.746162414550781
aa(lp5
F322.82437133789062
aF11.945941925048828
aF12.165525436401367
aF2.1371867656707764
aF80.537677764892578
aa(lp6
F331.03018188476562
aF26.686315536499023
aF20.570560455322266
aF8.7935218811035156
aF47.121101379394531
aa(lp7
F329
aF18.500001907348633
aF0.70710670948028564
aF3.5355339050292969
aF135
aa.(lp1
(lp2
F320.41162109375
aF35.265632629394531
aF43.600452423095703
aF13.119126319885254
aF53.392925262451172
aa(lp3
F304.76470947265625
aF31.058832168579102
aF20.391464233398438
aF6.0740537643432617
aF49.398704528808594
aa(lp4
F322.30770874023438
aF12.038461685180664
aF11.178619384765625
aF2.1572778224945068
aF78.690067291259766
aa(lp5
F329.70004272460938
aF18.900001525878906
aF0.4472135603427887
aF2.2360680103302002
aF153.43494987487793
aa.(lp1
(lp2
F319.62960815429688
aF35.663867950439453
aF40.816261291503906
aF12.25783634185791
aF58.781599044799805
aa(lp3
F322.82437133789062
aF11.945941925048828
aF12.165525436401367
aF2.1371867656707764
aF80.537677764892578
aa(lp4
F310.30999755859375
aF24.169998168945312
aF7.0710678100585938
aF2.6870059967041016
aF81.869897842407227
aa(lp5
F319.00003051757812
aF37.500003814697266
aF0.70710670948028564
aF3.5355339050292969
aF135
aa(lp6
F317.25
aF29.250003814697266
aF1.4142134189605713
aF0.70710670948028564
aF45
aa(lp7
F334.75003051757812
aF17.750001907348633
aF1.4142134189605713
aF0.70710670948028564
aF45
aa(lp8
F298.82354736328125
aF33.705879211425781
aF8.246211051940918
aF2.425356388092041
aF14.036239624023438
aa.(lp1
(lp2
F318.94558715820312
aF27.693630218505859
aF40.738571166992188
aF20.343532562255859
aF55.491477966308594
aa(lp3
F330.6600341796875
aF25.119998931884766
aF12.200000762939453
aF1.2000000476837158
aF36.869899749755859
aa(lp4
F317.25003051757812
aF30.250003814697266
aF1.4142134189605713
aF0.70710670948028564
aF45
aa.(lp1
(lp2
F320.03375244140625
aF31.216970443725586
aF42.232765197753906
aF22.420629501342773
aF36.158191680908203
aa(lp3
F330.74002075195312
aF25.179998397827148
aF12.200000762939453
aF1.3999999761581421
aF36.869899749755859
aa(lp4
F311.03997802734375
aF24.719993591308594
aF1.6970564126968384
aF7.9195966720581055
aF98.130104064941406
aa(lp5
F317.5
aF32.5
aF3
aF1
aF0
aa(lp6
F299.17648315429688
aF33.794120788574219
aF8.246211051940918
aF1.6977493762969971
aF14.036239624023438
aa.(lp1
(lp2
F318.07254028320312
aF31.124366760253906
aF37.718341827392578
aF20.010875701904297
aF59.743558883666992
aa(lp3
F309.38238525390625
aF27.029409408569336
aF11.399173736572266
aF2.1828205585479736
aF75.96375560760498
aa.(lp1
(lp2
F374
aF131
aF28
aF56
aF180
aa(lp3
F265.45663452148438
aF84.911575317382812
aF107.00080871582031
aF30.977685928344727
aF49.844001770019531
aa(lp4
F355.44354248046875
aF17.774887084960938
aF38.541343688964844
aF23.277448654174805
aF72.552812576293945
aa(lp5
F247.00003051757812
aF103.50000762939453
aF7.6026301383972168
aF2.683281421661377
aF63.43494987487793
aa(lp6
F283.70001220703125
aF78.399993896484375
aF5.3665633201599121
aF1.3416407108306885
aF63.43494987487793
aa(lp7
F239.40003967285156
aF107.30002593994141
aF5.813776969909668
aF0.89442712068557739
aF63.43494987487793
aa.(lp1
(lp2
F381.99111938476562
aF130.47154235839844
aF34.420936584472656
aF63.055332183837891
aF162.64597511291504
aa(lp3
F279.6207275390625
aF79.77886962890625
aF84.071258544921875
aF31.391204833984375
aF47.663002014160156
aa(lp4
F261
aF101.5
aF4
aF1
aF90
aa(lp5
F346.4000244140625
aF1.3000063896179199
aF3.1304950714111328
aF0.89442712068557739
aF63.43494987487793
aa.(lp1
(lp2
F393.19464111328125
aF132.08598327636719
aF31.526819229125977
aF59.142871856689453
aF158.83874320983887
aa(lp3
F278.82672119140625
aF86.232666015625
aF108.91690826416016
aF27.721744537353516
aF50.710590362548828
aa(lp4
F300.70004272460938
aF79.600006103515625
aF17.200000762939453
aF1.8000001907348633
aF53.130104064941406
aa(lp5
F318.75003051757812
aF55.250007629394531
aF0.70710670948028564
aF2.8284268379211426
aF135
aa(lp6
F304.50003051757812
aF84.499984741210938
aF8.4852809906005859
aF1.4142134189605713
aF45
aa(lp7
F379
aF1.499969482421875
aF0.70710670948028564
aF2.1213202476501465
aF135
aa(lp8
F309.64999389648438
aF73.050010681152344
aF0.94868320226669312
aF3.1622774600982666
aF108.43495178222656
aa(lp9
F248.558837890625
aF115.23529815673828
aF7.2760686874389648
aF0.72760689258575439
aF75.96375560760498
aa.(lp1
(lp2
F397.94464111328125
aF129.96025085449219
aF32.844642639160156
aF65.852821350097656
aF162.55281257629395
aa(lp3
F272.5384521484375
aF106.80769348144531
aF34.391410827636719
aF7.4884529113769531
aF56.3099365234375
aa(lp4
F279.557373046875
aF87.868850708007812
aF114.72105407714844
aF27.912040710449219
aF50.194431304931641
aa(lp5
F377.53445434570312
aF19.586214065551758
aF40.667278289794922
aF23.769006729125977
aF68.198593139648438
aa(lp6
F255.80003356933594
aF115.10002136230469
aF10.28591251373291
aF1.7888542413711548
aF63.43494987487793
aa(lp7
F303.04998779296875
aF82.650016784667969
aF8.5381488800048828
aF1.2649109363555908
aF71.56505012512207
aa(lp8
F257.25003051757812
aF120.25001525878906
aF1.4142134189605713
aF0.70710670948028564
aF45
aa(lp9
F310.75003051757812
aF84.250015258789062
aF4.9497470855712891
aF1.4142134189605713
aF45
aa.(lp1
(lp2
F299.43429565429688
aF84.922164916992188
aF85.214805603027344
aF27.980472564697266
aF49.820766448974609
aa(lp3
F283.50003051757812
aF107.50000762939453
aF15.652474403381348
aF2.2360677719116211
aF63.43494987487793
aa(lp4
F406.38528442382812
aF128.6614990234375
aF31.565456390380859
aF62.993553161621094
aF159.07549667358398
aa(lp5
F377.82861328125
aF29.575845718383789
aF11.392882347106934
aF26.90818977355957
aF102.99462127685547
aa(lp6
F392.09994506835938
aF15.80000114440918
aF10.195732116699219
aF2.0608394145965576
aF12.52880859375
aa(lp7
F328.25003051757812
aF68.250007629394531
aF4.242640495300293
aF0.70710670948028564
aF45
aa(lp8
F270.00003051757812
aF97.500022888183594
aF0.70710670948028564
aF2.1213202476501465
aF135
aa(lp9
F399.1470947265625
aF9.4117660522460938
aF16.734958648681641
aF4.3656415939331055
aF14.036239624023438
aa(lp10
F391.02944946289062
aF3.1176509857177734
aF0.9701424241065979
aF4.123105525970459
aF165.96375560760498
aa.(lp1
(lp2
F415.49945068359375
aF131.90763854980469
aF31.658636093139648
aF64.414863586425781
aF157.83365440368652
aa(lp3
F307.55722045898438
aF82.991241455078125
aF83.93048095703125
aF31.69066047668457
aF47.602561950683594
aa(lp4
F385.10000610351562
aF27.200000762939453
aF8.590693473815918
aF28.635646820068359
aF102.09475708007812
aa(lp5
F333.24002075195312
aF54.180007934570312
aF1.2000000476837158
aF7.8000001907348633
aF126.86989974975586
aa(lp6
F333.50003051757812
aF67.999992370605469
aF6.3639612197875977
aF0.70710670948028564
aF45
aa(lp7
F296.08822631835938
aF104.64706420898438
aF6.6884446144104004
aF0.85749286413192749
aF59.036245346069336
aa(lp8
F397.300048828125
aF2.5999941825866699
aF0.89442712068557739
aF3.1304950714111328
aF153.43494987487793
aa(lp9
F319.25003051757812
aF55.750007629394531
aF0.70710670948028564
aF1.4142134189605713
aF135
aa(lp10
F275.10003662109375
aF97.300018310546875
aF0.4472135603427887
aF2.2360680103302002
aF116.56504821777344
aa(lp11
F325.10003662109375
aF53.300014495849609
aF0.4472135603427887
aF2.2360680103302002
aF116.56504821777344
aa(lp12
F405.2095947265625
aF10.75465202331543
aF19.416486740112305
aF2.472125768661499
aF11.888656616210938
aa.(lp1
(lp2
F418.26605224609375
aF134.57293701171875
aF31.227020263671875
aF61.579425811767578
aF155.0952320098877
aa(lp3
F298.70867919921875
aF92.481117248535156
aF106.96981811523438
aF31.64354133605957
aF51.132221221923828
aa(lp4
F385.44070434570312
aF28.054134368896484
aF8.6872930526733398
aF27.856775283813477
aF111.03751373291016
aa(lp5
F404.02703857421875
aF9.6621627807617188
aF5.0963687896728516
aF18.412687301635742
aF170.53767776489258
aa(lp6
F400.23080444335938
aF17.346155166625977
aF11.178619384765625
aF1.765045166015625
aF11.309928894042969
aa(lp7
F271.4000244140625
aF117.70000457763672
aF4.4721360206604004
aF1.3416407108306885
aF26.565048217773438
aa(lp8
F321.75003051757812
aF81.749992370605469
aF2.8284268379211426
aF0.70710670948028564
aF45
aa(lp9
F277.75003051757812
aF103.75001525878906
aF1.4142134189605713
aF0.70710670948028564
aF45
aa(lp10
F397.94827270507812
aF6.3793020248413086
aF6.3136410713195801
aF2.4140393733978271
aF21.801406860351562
aa.(lp1
(lp2
F420.84280395507812
aF132.28643798828125
aF31.261684417724609
aF69.927444458007812
aF156.44773483276367
aa(lp3
F310.42041015625
aF90.394027709960938
aF85.126373291015625
aF31.642541885375977
aF49.289154052734375
aa(lp4
F386.98171997070312
aF32.62420654296875
aF11.647623062133789
aF28.444347381591797
aF106.50436401367188
aa(lp5
F274
aF120
aF44
aF20
aF90
aa(lp6
F401.48275756835938
aF19.706892013549805
aF9.8479833602905273
aF1.1817581653594971
aF23.198593139648438
aa(lp7
F328.76922607421875
aF80.153846740722656
aF4.9923019409179688
aF1.1094003915786743
aF56.309932708740234
aa(lp8
F399.08621215820312
aF9.46551513671875
aF8.9288387298583984
aF2.8887419700622559
aF23.198593139648438
aa(lp9
F406.38372802734375
aF9.0026931762695312
aF17.424591064453125
aF4.5583310127258301
aF17.102729797363281
aa(lp10
F322
aF87.000015258789062
aF2.683281421661377
aF0.89442712068557739
aF63.43494987487793
aa(lp11
F255.25001525878906
aF117.25
aF1.4142134189605713
aF0.70710670948028564
aF45
aa(lp12
F337.75003051757812
aF72.750007629394531
aF2.8284268379211426
aF0.70710670948028564
aF45
aa(lp13
F381
aF1.5
aF1
aF2
aF90
aa.(lp1
(lp2
F303.21441650390625
aF97.856002807617188
aF111.92729187011719
aF32.426784515380859
aF51.033252716064453
aa(lp3
F423.11257934570312
aF129.27851867675781
aF30.588695526123047
aF77.195114135742188
aF161.93952560424805
aa(lp4
F391
aF30.999992370605469
aF9.4868326187133789
aF28.460500717163086
aF108.43495178222656
aa(lp5
F409.06033325195312
aF11.02585506439209
aF22.32209587097168
aF4.3331136703491211
aF23.198593139648438
aa(lp6
F331.5882568359375
aF81.147048950195312
aF6.3454475402832031
aF1.2004899978637695
aF59.036245346069336
aa(lp7
F403.300048828125
aF8.6000099182128906
aF0.89442712068557739
aF3.1304950714111328
aF153.43494987487793
aa.(lp1
(lp2
F460.33648681640625
aF68.541015625
aF43.963329315185547
aF88.440231323242188
aF141.95296096801758
aa(lp3
F357.13845825195312
aF133.00770568847656
aF48.24951171875
aF18.853279113769531
aF29.744884490966797
aa(lp4
F389.30239868164062
aF9.8219547271728516
aF1.6762329339981079
aF18.787775039672852
aF155.22485733032227
aa(lp5
F534.8800048828125
aF127.16001129150391
aF1.2000000476837158
aF7.2000002861022949
aF126.86989974975586
aa(lp6
F404.72052001953125
aF22.174606323242188
aF24.698177337646484
aF12.1871337890625
aF68.629375457763672
aa(lp7
F525.7930908203125
aF148.51724243164062
aF1.4855626821517944
aF6.3136410713195801
aF111.80140686035156
aa(lp8
F517.00006103515625
aF149.50001525878906
aF0.89442712068557739
aF6.7082037925720215
aF116.56504821777344
aa.(lp1
(lp2
F467.584716796875
aF76.239891052246094
aF45.8985595703125
aF112.67896270751953
aF142.73359680175781
aa(lp3
F539.6158447265625
aF138.95732116699219
aF31.362558364868164
aF10.270133018493652
aF6.3401870727539062
aa(lp4
F523.96343994140625
aF119.82926940917969
aF7.4033608436584473
aF29.543601989746094
aF114.775146484375
aa(lp5
F508.99996948242188
aF129.5
aF4.9923019409179688
aF21.91065788269043
aF146.30993270874023
aa(lp6
F405.10104370117188
aF19.316064834594727
aF27.784883499145508
aF12.308849334716797
aF59.743558883666992
aa(lp7
F389.53472900390625
aF9.717158317565918
aF1.9331907033920288
aF18.788196563720703
aF154.98310470581055
aa(lp8
F514.70001220703125
aF147.89999389648438
aF1
aF5
aF126.86989974975586
aa(lp9
F527.88671875
aF149.39622497558594
aF1.923047661781311
aF12.637170791625977
aF105.94539642333984
aa(lp10
F512.00006103515625
aF120.00001525878906
aF9.8994951248168945
aF1.4142134189605713
aF45
aa(lp11
F467.25006103515625
aF95.750022888183594
aF0.70710670948028564
aF1.4142134189605713
aF135
aa(lp12
F439.75006103515625
aF66.250007629394531
aF0.70710670948028564
aF4.242640495300293
aF135
aa(lp13
F529.50006103515625
aF153.50001525878906
aF0.4472135603427887
aF3.1304950714111328
aF116.56504821777344
aa(lp14
F517.300048828125
aF142.10002136230469
aF0.4472135603427887
aF2.2360680103302002
aF153.43494987487793
aa(lp15
F434.35003662109375
aF58.050003051757812
aF0.63245546817779541
aF4.1109609603881836
aF161.56505012512207
aa.(lp1
(lp2
F466.42465209960938
aF76.598892211914062
aF46.689582824707031
aF104.28031158447266
aF144.65989303588867
aa(lp3
F404.13018798828125
aF20.11244010925293
aF26.000001907348633
aF11.076924324035645
aF67.380134582519531
aa(lp4
F535.6204833984375
aF143.84759521484375
aF27.658395767211914
aF16.953147888183594
aF49.635463714599609
aa(lp5
F390.08499145507812
aF9.9305963516235352
aF2.0225358009338379
aF18.788293838500977
aF154.79887771606445
aa(lp6
F530.9918212890625
aF121.40983581542969
aF1.6644794940948486
aF9.2186565399169922
aF129.80556869506836
aa(lp7
F517.50006103515625
aF142.99998474121094
aF0.70710670948028564
aF2.1213202476501465
aF135
aa(lp8
F445.50006103515625
aF73.000007629394531
aF0.70710670948028564
aF6.3639612197875977
aF135
aa(lp9
F449.5
aF80
aF2
aF1
aF0
aa(lp10
F435.30007934570312
aF61.100006103515625
aF0.4472135603427887
aF2.2360680103302002
aF153.43494987487793
aa.(lp1
(lp2
F464.71505737304688
aF77.3841552734375
aF46.63470458984375
aF111.83079528808594
aF146.1214599609375
aa(lp3
F520.52972412109375
aF127.72163391113281
aF37.054821014404297
aF21.100662231445312
aF72.897270202636719
aa(lp4
F531.3427734375
aF144.84831237792969
aF28.30194091796875
aF12.613972663879395
aF57.994617462158203
aa(lp5
F510
aF135.00003051757812
aF1.4142137765884399
aF8.4852828979492188
aF135
aa(lp6
F389.70004272460938
aF10.400002479553223
aF1.7888542413711548
aF20.124610900878906
aF153.43494987487793
aa(lp7
F404.27487182617188
aF23.165260314941406
aF24.967567443847656
aF9.0343170166015625
aF70.820991516113281
aa(lp8
F443.74002075195312
aF72.680015563964844
aF1
aF6.4000000953674316
aF126.86989974975586
aa(lp9
F459.25006103515625
aF93.749992370605469
aF0.70710670948028564
aF1.4142134189605713
aF135
aa(lp10
F433.11767578125
aF58.970596313476562
aF0.72760689258575439
aF6.3059263229370117
aF165.96375560760498
aa.(lp1
(lp2
F472.29269409179688
aF91.865837097167969
aF44.353347778320312
aF151.95706176757812
aF141.34019470214844
aa(lp3
F385.00003051757812
aF10.999999046325684
aF2.683281421661377
aF21.466251373291016
aF153.43494987487793
aa(lp4
F402.03298950195312
aF20.279962539672852
aF28.600702285766602
aF11.887823104858398
aF53.530765533447266
aa(lp5
F522
aF148
aF22
aF8
aF90
aa(lp6
F435.10006713867188
aF30.199981689453125
aF14.310833930969238
aF2.2360680103302002
aF63.43494987487793
aa(lp7
F441.42071533203125
aF30.786581039428711
aF11.043154716491699
aF1.6564730405807495
aF83.65980863571167
aa.(lp1
(lp2
F453.65731811523438
aF90.151725769042969
aF7.5259852409362793
aF24.69795036315918
aF147.9946174621582
aa(lp3
F431.97747802734375
aF52.865375518798828
aF57.406894683837891
aF28.684701919555664
aF6.4588165283203125
aa(lp4
F522.42303466796875
aF131.88461303710938
aF5.8243522644042969
aF25.238859176635742
aF146.3099365234375
aa(lp5
F396.9228515625
aF20.272653579711914
aF25.079872131347656
aF7.1371979713439941
aF66.501432418823242
aa(lp6
F436.00006103515625
aF72.500022888183594
aF0.70710659027099609
aF16.263454437255859
aF135
aa(lp7
F384.30001831054688
aF12.600011825561523
aF2.683281421661377
aF20.124610900878906
aF153.43494987487793
aa(lp8
F521.95208740234375
aF147.7054443359375
aF18.375459671020508
aF3.1601109504699707
aF69.443952560424805
aa(lp9
F481
aF81
aF2
aF4
aF90
aa(lp10
F426.00003051757812
aF60.000003814697266
aF0.89442706108093262
aF8.9442720413208008
aF153.43494987487793
aa(lp11
F441
aF30.5
aF10
aF1
aF90
aa(lp12
F452.70269775390625
aF44.783775329589844
aF1.4704294204711914
aF27.202943801879883
aF162.89727020263672
aa(lp13
F434.75180053710938
aF29.317522048950195
aF12.644493103027344
aF1.7941510677337646
aF70.016895294189453
aa(lp14
F432.90005493164062
aF33.299995422363281
aF2.2360680103302002
aF0.4472135603427887
aF63.43494987487793
aa.(lp1
(lp2
F468.44674682617188
aF92.727798461914062
aF43.001300811767578
aF154.35746765136719
aF139.18491363525391
aa(lp3
F384.9542236328125
aF15.702017784118652
aF18.694208145141602
aF39.717430114746094
aF115.76932525634766
aa(lp4
F515
aF144
aF2
aF4
aF90
aa(lp5
F421.70001220703125
aF57.599994659423828
aF0.94868320226669312
aF7.2732377052307129
aF161.5650520324707
aa(lp6
F432.6546630859375
aF30.097938537597656
aF9.8488578796386719
aF4.1629195213317871
aF66.037509918212891
aa.(lp1
(lp2
F464.04388427734375
aF86.637832641601562
aF43.209522247314453
aF141.478271484375
aF137.91083526611328
aa(lp3
F441.10076904296875
aF84.275871276855469
aF4.9883232116699219
aF70.385879516601562
aF139.21417999267578
aa(lp4
F490.8623046875
aF134.04779052734375
aF21.30830192565918
aF69.0941162109375
aF119.95360565185547
aa(lp5
F386.096923828125
aF16.977825164794922
aF18.25946044921875
aF35.680477142333984
aF115.76933288574219
aa(lp6
F380.03347778320312
aF14.987125396728516
aF1.3641203641891479
aF17.087400436401367
aF158.96248626708984
aa(lp7
F515.21160888671875
aF124.44230651855469
aF7.0601806640625
aF0.98058068752288818
aF11.309928894042969
aa(lp8
F520.5
aF127
aF2
aF1
aF0
aa.(lp1
(lp2
F446.8843994140625
aF73.916831970214844
aF41.074413299560547
aF99.443305969238281
aF144.16234970092773
aa(lp3
F426.92001342773438
aF68.560012817382812
aF1.2000000476837158
aF6.4000000953674316
aF143.13010406494141
aa(lp4
F420.93963623046875
aF59.525867462158203
aF1.0504516363143921
aF9.8479833602905273
aF156.80141067504883
aa(lp5
F522.75006103515625
aF131.75003051757812
aF1.4142134189605713
aF0.70710670948028564
aF45
aa(lp6
F509.5
aF129
aF2
aF1
aF0
aa(lp7
F424.92303466796875
aF32.384632110595703
aF4.9923019409179688
aF0.55470019578933716
aF56.309932708740234
aa.(lp1
(lp2
F384.44903564453125
aF14.573259353637695
aF5.187565803527832
aF29.050363540649414
aF151.3895378112793
aa.