(lp1
(lp2
F225.34188842773438
aF103.10037994384766
aF29.897909164428711
aF66.439804077148438
aF177.33699941635132
aa(lp3
F235.5
aF152.5
aF15
aF27
aF180
aa.(lp1
(lp2
F229.43009948730469
aF123.9365234375
aF26.854097366333008
aF108.66279602050781
aF169.11447238922119
aa(lp3
F233.38236999511719
aF96.0294189453125
aF0.72760689258575439
aF6.0633902549743652
aF165.96375560760498
aa.(lp1
(lp2
F229.18275451660156
aF124.30690002441406
aF28.419643402099609
aF108.179931640625
aF170.72739791870117
aa.(lp1
(lp2
F229.01736450195312
aF119.89495849609375
aF29.739631652832031
aF100.75562286376953
aF170.96051692962646
aa.(lp1
(lp2
F229.68109130859375
aF123.81350708007812
aF27.917301177978516
aF107.66616058349609
aF171.02737331390381
aa.(lp1
(lp2
F230.31500244140625
aF123.79768371582031
aF26.838096618652344
aF109.48117828369141
aF171.25383853912354
aa.(lp1
(lp2
F229.5
aF112.5
aF27
aF51
aF180
aa(lp3
F237.5
aF153
aF15
aF26
aF180
aa.(lp1
(lp2
F230.04264831542969
aF123.11262512207031
aF27.16558837890625
aF110.88234710693359
aF173.29016304016113
aa.(lp1
(lp2
F230.93861389160156
aF124.58255004882812
aF27.643857955932617
aF105.77413940429688
aF171.63411331176758
aa.(lp1
(lp2
F230.421630859375
aF119.67027282714844
aF28.073266983032227
aF95.4490966796875
aF171.02737426757812
aa.(lp1
(lp2
F227.54612731933594
aF110.12840270996094
aF28.645463943481445
aF101.90771484375
aF172.33319520950317
aa.(lp1
(lp2
F224.48286437988281
aF109.93193054199219
aF31.343475341796875
aF98.226974487304688
aF172.9987325668335
aa.(lp1
(lp2
F217.04513549804688
aF112.08352661132812
aF30.067937850952148
aF107.89751434326172
aF171.60707569122314
aa.(lp1
(lp2
F212.73759460449219
aF112.82228088378906
aF31.701648712158203
aF111.52689361572266
aF173.34557485580444
aa.(lp1
(lp2
F203.40509033203125
aF98.48583984375
aF31.390012741088867
aF83.1961669921875
aF173.23382520675659
aa.(lp1
(lp2
F198.73361206054688
aF110.56967163085938
aF31.41590690612793
aF110.27253723144531
aF174.80557107925415
aa.(lp1
(lp2
F198.477294921875
aF107.93801116943359
aF31.788766860961914
aF105.95651245117188
aF175.84035778045654
aa(lp3
F204.59616088867188
aF78.98077392578125
aF0.78446453809738159
aF8.0407619476318359
aF168.69006729125977
aa.(lp1
(lp2
F434.18475341796875
aF24.296039581298828
aF17.824710845947266
aF33.444625854492188
aF115.76933288574219
aa(lp3
F454.5
aF11
aF20
aF3
aF0
aa.(lp1
(lp2
F443.02783203125
aF28.480873107910156
aF10.235200881958008
aF33.120990753173828
aF118.88658142089844
aa(lp3
F437.40005493164062
aF1.7999910116195679
aF5.3665633201599121
aF0.89442712068557739
aF63.43494987487793
aa(lp4
F464.25180053710938
aF9.4793128967285156
aF17.024324417114258
aF0.91350036859512329
aF4.7636489868164062
aa.(lp1
(lp2
F459.13848876953125
aF27.5076904296875
aF12.403472900390625
aF32.745166778564453
aF119.7448844909668
aa(lp3
F481.6773681640625
aF8.7792453765869141
aF2.3957509994506836
aF16.278820037841797
aF169.38034534454346
aa.(lp1
(lp2
F466.64242553710938
aF24.626712799072266
aF14.479985237121582
aF31.90611457824707
aF122.19573211669922
aa(lp3
F487.8470458984375
aF5.311772346496582
aF1.7354438304901123
aF9.2195444107055664
aF167.47119235992432
aa.(lp1
(lp2
F633.5
aF116.5
aF9
aF19
aF180
aa(lp3
F481.01092529296875
aF26.520610809326172
aF16.795955657958984
aF30.364450454711914
aF107.24146270751953
aa(lp4
F472.80007934570312
aF1.5999971628189087
aF4.4721360206604004
aF0.89442712068557739
aF63.43494987487793
aa.(lp1
(lp2
F488.86199951171875
aF28.986417770385742
aF12.713515281677246
aF29.732135772705078
aF109.65382385253906
aa(lp3
F483.2000732421875
aF3.4000005722045898
aF8.9442720413208008
aF0.89442712068557739
aF63.43494987487793
aa(lp4
F508.62310791015625
aF7.4846153259277344
aF0.86824309825897217
aF13.023646354675293
aF172.87498331069946
aa.(lp1
(lp2
F443.5
aF129.5
aF23
aF51
aF180
aa(lp3
F108.5
aF153.5
aF35
aF21
aF90
aa(lp4
F507.81851196289062
aF7.208247184753418
aF6.6142616271972656
aF31.14482307434082
aF95.527542114257812
aa(lp5
F502.44573974609375
aF27.058002471923828
aF8.3806066513061523
aF28.444347381591797
aF106.50436401367188
aa.(lp1
(lp2
F457.52639770507812
aF35.334999084472656
aF48.173671722412109
aF29.860591888427734
aF67.067899703979492
aa(lp3
F390.69015502929688
aF25.719154357910156
aF26.248807907104492
aF7.8098773956298828
aF72.255329132080078
aa(lp4
F403.00006103515625
aF14.500001907348633
aF2.1213202476501465
aF0.70710670948028564
aF45
aa(lp5
F405.26419067382812
aF7.0754780769348145
aF10.164681434631348
aF1.373605489730835
aF15.945396423339844
aa(lp6
F371.25546264648438
aF12.952552795410156
aF3.9300448894500732
aF24.007450103759766
aF160.01689338684082
aa.(lp1
(lp2
F389.60296630859375
aF21.661766052246094
aF21.309186935424805
aF10.321638107299805
aF87.273689031600952
aa(lp3
F433.754638671875
aF38.098609924316406
aF14.764822959899902
aF1.6932134628295898
aF28.300754547119141
aa(lp4
F441.03842163085938
aF32.192291259765625
aF5.8243522644042969
aF1.3867506980895996
aF33.6900634765625
aa(lp5
F370.120849609375
aF12.605398178100586
aF6.388453483581543
aF23.170818328857422
aF149.53445625305176
aa(lp6
F449.729736328125
aF39.378379821777344
aF45.702919006347656
aF25.646244049072266
aF80.537677764892578
aa(lp7
F401.1153564453125
aF12.076904296875
aF4.4376015663146973
aF0.83205032348632812
aF33.690071105957031
aa(lp8
F403.50003051757812
aF7.0000009536743164
aF2.1213202476501465
aF0.70710670948028564
aF45
aa(lp9
F372.79998779296875
aF2.4000000953674316
aF0.63245546817779541
aF3.1622774600982666
aF161.56505012512207
aa.(lp1
(lp2
F449.64614868164062
aF38.869239807128906
aF47.098007202148438
aF26.048620223999023
aF74.744879722595215
aa(lp3
F388.68637084960938
aF22.294502258300781
aF29.858903884887695
aF12.767537117004395
aF78.231710433959961
aa(lp4
F369.95001220703125
aF12.349997520446777
aF7.2732386589050293
aF22.768400192260742
aF161.5650520324707
aa(lp5
F158.05000305175781
aF145.35000610351562
aF0.63245546817779541
aF4.1109609603881836
aF108.43495178222656
aa.(lp1
(lp2
F379.06689453125
aF14.997228622436523
aF17.603918075561523
aF31.011125564575195
aF121.32869720458984
aa(lp3
F429.10003662109375
aF34.799995422363281
aF11.180339813232422
aF0.89442723989486694
aF26.565048217773438
aa(lp4
F435.38458251953125
aF29.923072814941406
aF4.9923019409179688
aF1.1094005107879639
aF33.6900634765625
aa(lp5
F443.14413452148438
aF50.080795288085938
aF16.123973846435547
aF2.3128650188446045
aF82.405356407165527
aa(lp6
F397.50003051757812
aF9.0000009536743164
aF2.1213202476501465
aF0.70710670948028564
aF45
aa(lp7
F447.75003051757812
aF43.750003814697266
aF1.4142134189605713
aF0.70710670948028564
aF45
aa(lp8
F447.99111938476562
aF36.885295867919922
aF49.085762023925781
aF23.85261344909668
aF85.60129451751709
aa.(lp1
(lp2
F422.19232177734375
aF33.538448333740234
aF16.124513626098633
aF1.8605207204818726
aF29.744884490966797
aa(lp3
F377.5
aF17.5
aF29
aF11
aF90
aa(lp4
F453.72119140625
aF32.715450286865234
aF78.022071838378906
aF28.497970581054688
aF81.119340896606445
aa(lp5
F437.47064208984375
aF49.382369995117188
aF13.339459419250488
aF1.4552137851715088
aF75.96375560760498
aa(lp6
F448.95004272460938
aF46.350002288818359
aF4.1109609603881836
aF0.63245546817779541
aF71.565052032470703
aa(lp7
F438.05001831054688
aF43.650005340576172
aF4.1109609603881836
aF0.63245546817779541
aF71.565052032470703
aa(lp8
F393.10006713867188
aF6.7000007629394531
aF2.2360680103302002
aF0.4472135603427887
aF63.43494987487793
aa.