(lp1
(lp2
F70.816566467285156
aF45.840229034423828
aF26.923078536987305
aF2.1538465023040771
aF22.619865417480469
aa(lp3
F57.401222229003906
aF34.289020538330078
aF21.088027954101562
aF3.1607348918914795
aF32.905242919921875
aa.(lp1
(lp2
F65.384613037109375
aF40.576927185058594
aF40.596035003662109
aF26.083442687988281
aF11.309928894042969
aa(lp3
F60.250003814697266
aF26.25
aF7.0710678100585938
aF0.70710676908493042
aF45
aa.(lp1
(lp2
F63.225879669189453
aF31.694427490234375
aF66.824310302734375
aF32.653343200683594
aF21.540977478027344
aa(lp3
F76
aF23.999996185302734
aF16.086305618286133
aF1.1094003915786743
aF33.6900634765625
aa(lp4
F62.8780517578125
aF42.402442932128906
aF10.77599048614502
aF1.2493901252746582
aF38.659805297851562
aa(lp5
F61.300003051757812
aF7.8999972343444824
aF9.2195453643798828
aF1.8439089059829712
aF40.601299285888672
aa(lp6
F59.649997711181641
aF51.050003051757812
aF4.1109609603881836
aF0.63245546817779541
aF18.434951782226562
aa(lp7
F59.750003814697266
aF4.7500004768371582
aF2.8284268379211426
aF0.70710670948028564
aF45
aa.(lp1
(lp2
F68.789779663085938
aF33.5771484375
aF34.407283782958984
aF2.329012393951416
aF36.158191680908203
aa(lp3
F67.832405090332031
aF35.002418518066406
aF66.48272705078125
aF19.577547073364258
aF20.973495483398438
aa(lp4
F43.021732330322266
aF38.8648681640625
aF85.234672546386719
aF25.822040557861328
aF17.26580810546875
aa(lp5
F59.341175079345703
aF9.9352922439575195
aF9.2195453643798828
aF1.7354435920715332
aF40.601299285888672
aa.(lp1
(lp2
F42.769172668457031
aF46.279266357421875
aF100.22366333007812
aF34.909503936767578
aF41.516731262207031
aa(lp3
F71.088233947753906
aF3.3529391288757324
aF0.85749286413192749
aF6.6884446144104004
aF120.96376037597656
aa.(lp1
(lp2
F44.153850555419922
aF43.769229888916016
aF89.306732177734375
aF31.617912292480469
aF33.690071105957031
aa.(lp1
(lp2
F61.920726776123047
aF32.621238708496094
aF37.180767059326172
aF2.9937753677368164
aF33.178512573242188
aa(lp3
F47.822059631347656
aF38.817272186279297
aF88.863937377929688
aF31.456533432006836
aF31.723602294921875
aa(lp4
F39
aF58.500003814697266
aF3.5355339050292969
aF0.70710670948028564
aF45
aa(lp5
F68.750007629394531
aF1.7500040531158447
aF1.4142134189605713
aF0.70710670948028564
aF45
aa.(lp1
(lp2
F42.461494445800781
aF26.993265151977539
aF78.1099853515625
aF31.292943954467773
aF36.469234466552734
aa(lp3
F102.15000915527344
aF158.55000305175781
aF11.70042610168457
aF1.2649109363555908
aF18.434951782226562
aa(lp4
F37.000003814697266
aF43.500003814697266
aF2.1213202476501465
aF0.70710670948028564
aF45
aa(lp5
F81.557693481445312
aF147.71153259277344
aF0.78446465730667114
aF11.178619384765625
aF101.30992889404297
aa.(lp1
(lp2
F41.677707672119141
aF39.400543212890625
aF101.49314880371094
aF35.520545959472656
aF41.112091064453125
aa(lp3
F66.1148681640625
aF26.939191818237305
aF25.806978225708008
aF1.5112200975418091
aF35.537677764892578
aa(lp4
F53.716213226318359
aF7.2972955703735352
aF9.183563232421875
aF1.5112192630767822
aF35.537677764892578
aa(lp5
F8.4999990463256836
aF70.000007629394531
aF2.1213202476501465
aF0.70710670948028564
aF45
aa(lp6
F11.999997138977051
aF66.500007629394531
aF3.5777084827423096
aF0.4472135603427887
aF26.565048217773438
aa(lp7
F51.76922607421875
aF5.3461556434631348
aF3.6055512428283691
aF0.55470025539398193
aF33.6900634765625
aa.(lp1
(lp2
F32.007781982421875
aF68.87548828125
aF85.040428161621094
aF31.757839202880859
aF48.576332092285156
aa(lp3
F152.26348876953125
aF97.185531616210938
aF139.172607421875
aF27.808378219604492
aF4.6858978271484375
aa(lp4
F23.338237762451172
aF85.897056579589844
aF7.2029399871826172
aF2.9154758453369141
aF59.036245346069336
aa(lp5
F135.779541015625
aF97.332572937011719
aF73.169281005859375
aF6.9407167434692383
aF3.521453857421875
aa(lp6
F136.83447265625
aF145.15701293945312
aF18.22723388671875
aF3.7973406314849854
aF6.7098388671875
aa(lp7
F32.750003814697266
aF55.750007629394531
aF2.8284268379211426
aF0.70710670948028564
aF45
aa(lp8
F142.50001525878906
aF57.500007629394531
aF3.1304950714111328
aF0.4472135603427887
aF26.565048217773438
aa.(lp1
(lp2
F31.254104614257812
aF66.704917907714844
aF80.151092529296875
aF30.088668823242188
aF50.194431304931641
aa(lp3
F147.68463134765625
aF95.523078918457031
aF140.03520202636719
aF27.039571762084961
aF7.1250152587890625
aa(lp4
F132.97224426269531
aF107.42581939697266
aF95.155853271484375
aF6.6540842056274414
aF2.0952529907226562
aa(lp5
F140.74118041992188
aF53.664703369140625
aF9.2195444107055664
aF1.5185134410858154
aF12.52880859375
aa.(lp1
(lp2
F31.048782348632812
aF67.56097412109375
aF82.459747314453125
aF29.985363006591797
aF51.340190887451172
aa(lp3
F150.73031616210938
aF95.8336181640625
aF136.42300415039062
aF27.872499465942383
aF5.1104202270507812
aa(lp4
F134.84756469726562
aF96.8719482421875
aF74.651710510253906
aF6.5154600143432617
aF6.3401870727539062
aa(lp5
F134.45001220703125
aF144.6500244140625
aF23.186435699462891
aF2.5473887920379639
aF8.972625732421875
aa(lp6
F140.35000610351562
aF49.950000762939453
aF4.1109609603881836
aF0.63245546817779541
aF18.434951782226562
aa.(lp1
(lp2
F34.595333099365234
aF70.974716186523438
aF91.436103820800781
aF31.713729858398438
aF48.576332092285156
aa(lp3
F152.7059326171875
aF99.212936401367188
aF135.99034118652344
aF29.109750747680664
aF9.0902786254882812
aa(lp4
F60.853660583496094
aF60.317073822021484
aF10.619816780090332
aF1.2493901252746582
aF51.340194702148438
aa(lp5
F139.64088439941406
aF124.11239624023438
aF67.704643249511719
aF9.0170965194702148
aF6.5819473266601562
aa(lp6
F5.2500004768371582
aF84.250007629394531
aF4.242640495300293
aF0.70710670948028564
aF45
aa(lp7
F13.500002861022949
aF78
aF6.3790526390075684
aF1.1094003915786743
aF56.3099365234375
aa(lp8
F68.500007629394531
aF53.000007629394531
aF3.5355339050292969
aF0.70710670948028564
aF45
aa(lp9
F144.69784545898438
aF75.6705322265625
aF4.6169805526733398
aF27.073972702026367
aF175.76360511779785
aa(lp10
F142.20001220703125
aF116.40000915527344
aF3.1622774600982666
aF0.63245546817779541
aF18.434951782226562
aa(lp11
F1.5
aF92.5
aF1
aF15
aF180
aa.(lp1
(lp2
F151.22821044921875
aF109.72079467773438
aF112.88922119140625
aF29.562294006347656
aF8.2971420288085938
aa(lp3
F30.636974334716797
aF74.312446594238281
aF83.419227600097656
aF29.771209716796875
aF51.072456359863281
aa(lp4
F15.179996490478516
aF76.739997863769531
aF7.8000001907348633
aF1
aF53.130104064941406
aa(lp5
F6.9512205123901367
aF82.93902587890625
aF8.4333839416503906
aF1.0932164192199707
aF51.340190887451172
aa(lp6
F146.5
aF69.5
aF1
aF13
aF180
aa(lp7
F156.59365844726562
aF37.389564514160156
aF34.313613891601562
aF15.691455841064453
aF58.736270904541016
aa.(lp1
(lp2
F32.625324249267578
aF71.621597290039062
aF86.181678771972656
aF29.408605575561523
aF50.477367401123047
aa(lp3
F147.21153259277344
aF127.44229125976562
aF74.131904602050781
aF28.044607162475586
aF11.309928894042969
aa(lp4
F9.8536596298217773
aF79.81707763671875
aF15.617377281188965
aF1.0932164192199707
aF51.340194702148438
aa(lp5
F158.82691955566406
aF58.865383148193359
aF62.168807983398438
aF28.240720748901367
aF11.309928894042969
aa(lp6
F62.331031799316406
aF57.872413635253906
aF13.453369140625
aF1.0795912742614746
aF48.366458892822266
aa(lp7
F139.48301696777344
aF146.09056091308594
aF20.394598007202148
aF2.7028985023498535
aF10.619651794433594
aa(lp8
F47.23529052734375
aF46.941177368164062
aF5.8309516906738281
aF1.714985728263855
aF30.963748931884766
aa(lp9
F140.75001525878906
aF133.25001525878906
aF0.70710670948028564
aF1.4142134189605713
aF135
aa(lp10
F18.750001907348633
aF71.750007629394531
aF2.8284268379211426
aF0.70710670948028564
aF45
aa(lp11
F142.90541076660156
aF108.06755828857422
aF6.0827627182006836
aF0.82199496030807495
aF9.4623260498046875
aa.(lp1
(lp2
F33.385246276855469
aF69.262290954589844
aF86.552932739257812
aF29.576519012451172
aF50.194431304931641
aa(lp3
F154.80787658691406
aF79.272903442382812
aF112.05146026611328
aF31.305749893188477
aF8.5836181640625
aa(lp4
F145.13275146484375
aF153.00888061523438
aF32.062160491943359
aF18.758359909057617
aF3.8140792846679688
aa(lp5
F11.341464042663574
aF77.926834106445312
aF7.8086886405944824
aF1.2493901252746582
aF51.340194702148438
aa(lp6
F67.750007629394531
aF51.750007629394531
aF4.242640495300293
aF0.70710670948028564
aF45
aa(lp7
F59.500003814697266
aF59.000003814697266
aF3.5355339050292969
aF0.70710670948028564
aF45
aa(lp8
F1.5
aF89.5
aF1
aF13
aF180
aa.(lp1
(lp2
F35.300006866455078
aF69.900001525878906
aF92.200019836425781
aF29.800004959106445
aF53.130104064941406
aa(lp3
F63.640003204345703
aF57.019996643066406
aF5
aF1.2000000476837158
aF53.130104064941406
aa(lp4
F5.8799991607666016
aF83.840003967285156
aF5.6000003814697266
aF1.2000000476837158
aF53.130104064941406
aa(lp5
F12.600000381469727
aF77.800003051757812
aF3.1622774600982666
aF0.63245546817779541
aF71.565052032470703
aa.(lp1
(lp2
F34.448226928710938
aF70.942207336425781
aF93.942352294921875
aF31.29859733581543
aF48.144954681396484
aa(lp3
F160.83589172363281
aF81.939102172851562
aF117.89540863037109
aF27.972503662109375
aF3.96466064453125
aa(lp4
F10.000000953674316
aF81
aF15.617377281188965
aF1.2493901252746582
aF51.340194702148438
aa(lp5
F57.319995880126953
aF63.739997863769531
aF10.40000057220459
aF4.2000002861022949
aF36.869899749755859
aa(lp6
F146.5
aF73.5
aF3
aF23
aF180
aa(lp7
F68.250007629394531
aF53.250007629394531
aF5.6568536758422852
aF0.70710670948028564
aF45
aa(lp8
F57.750003814697266
aF35.25
aF0.70710670948028564
aF1.4142134189605713
aF135
aa(lp9
F140.89326477050781
aF109.48999786376953
aF46.872165679931641
aF5.3123207092285156
aF11.070205688476562
aa.(lp1
(lp2
F34.448226928710938
aF70.942207336425781
aF93.942352294921875
aF31.29859733581543
aF48.144954681396484
aa(lp3
F160.83589172363281
aF81.939102172851562
aF117.89540863037109
aF27.972503662109375
aF3.96466064453125
aa(lp4
F10.000000953674316
aF81
aF15.617377281188965
aF1.2493901252746582
aF51.340194702148438
aa(lp5
F57.319995880126953
aF63.739997863769531
aF10.40000057220459
aF4.2000002861022949
aF36.869899749755859
aa(lp6
F146.5
aF73.5
aF3
aF23
aF180
aa(lp7
F68.250007629394531
aF53.250007629394531
aF5.6568536758422852
aF0.70710670948028564
aF45
aa(lp8
F57.750003814697266
aF35.25
aF0.70710670948028564
aF1.4142134189605713
aF135
aa(lp9
F140.89326477050781
aF109.48999786376953
aF46.872165679931641
aF5.3123207092285156
aF11.070205688476562
aa.(lp1
(lp2
F72.5
aF178.50001525878906
aF43.818019866943359
aF24.862262725830078
aF15.945396423339844
aa(lp3
F44.729743957519531
aF74.392341613769531
aF22.687402725219727
aF47.273754119873047
aF178.09084749221802
aa(lp4
F45.192367553710938
aF171.59538269042969
aF48.843955993652344
aF24.960254669189453
aF4.5739212036132812
aa(lp5
F43.949996948242188
aF189.65000915527344
aF0.63245546817779541
aF4.1109609603881836
aF108.43495178222656
aa(lp6
F47.070587158203125
aF151.68235778808594
aF0.86772191524505615
aF10.195732116699219
aF102.52880859375
aa(lp7
F102.61538696289062
aF71.076919555664062
aF4.3145556449890137
aF25.495098114013672
aF168.69006729125977
aa.(lp1
(lp2
F34.193180084228516
aF72.08990478515625
aF91.866378784179688
aF31.352964401245117
aF55.922805786132812
aa(lp3
F153.74070739746094
aF120.73634338378906
aF86.6796875
aF28.394260406494141
aF10.7843017578125
aa(lp4
F142.83561706542969
aF142.93836975097656
aF17.088006973266602
aF1.2874524593353271
aF20.556045532226562
aa.(lp1
(lp2
F16.989997863769531
aF44.569995880126953
aF7.0710678100585938
aF0.98994958400726318
aF8.1301040649414062
aa.(lp1
(lp2
F27.831472396850586
aF161.2593994140625
aF48.012058258056641
aF10.882132530212402
aF22.52056884765625
aa(lp3
F27.75
aF179.25
aF6.5185732841491699
aF11.135896682739258
aF174.80557107925415
aa(lp4
F65
aF163
aF46.510211944580078
aF26.832815170288086
aF26.565048217773438
aa(lp5
F34.110584259033203
aF162.36236572265625
aF58.208549499511719
aF30.947546005249023
aF22.833656311035156
aa(lp6
F29.528530120849609
aF51.473014831542969
aF37.069034576416016
aF5.9699192047119141
aF1.5911407470703125
aa(lp7
F32.3486328125
aF173.00459289550781
aF1.3409569263458252
aF11.398133277893066
aF106.69924163818359
aa(lp8
F69.400001525878906
aF41.800003051757812
aF9.8386993408203125
aF0.89442712068557739
aF63.43494987487793
aa(lp9
F44.832111358642578
aF60.211677551269531
aF50.748844146728516
aF17.599767684936523
aF19.983108520507812
aa(lp10
F37.399993896484375
aF81.800003051757812
aF0.63245546817779541
aF3.1622774600982666
aF108.43495178222656
aa(lp11
F90.702705383300781
aF43.716213226318359
aF1.5112192630767822
aF10.811030387878418
aF125.53768157958984
aa.(lp1
(lp2
F37.299995422363281
aF177.9000244140625
aF55.007266998291016
aF31.752164840698242
aF26.565048217773438
aa(lp3
F50.296707153320312
aF73.265182495117188
aF51.911457061767578
aF19.371889114379883
aF24.341094970703125
aa(lp4
F33.34954833984375
aF195.25663757324219
aF14.487102508544922
aF6.6791181564331055
aF48.814071655273438
aa(lp5
F21.349994659423828
aF195.95002746582031
aF2.2135939598083496
aF7.5894656181335449
aF108.43495178222656
aa(lp6
F95.500007629394531
aF57.500007629394531
aF1.4142134189605713
aF14.142135620117188
aF135
aa(lp7
F28.846141815185547
aF189.76921081542969
aF1.1094003915786743
aF4.9923019409179688
aF146.30993270874023
aa(lp8
F71.400009155273438
aF52.800010681152344
aF5.3665633201599121
aF0.89442712068557739
aF63.43494987487793
aa(lp9
F33.363533020019531
aF63.087123870849609
aF6.2753572463989258
aF36.013885498046875
aF178.40885972976685
aa.(lp1
(lp2
F65.094337463378906
aF174.83018493652344
aF34.154808044433594
aF12.777337074279785
aF47.489551544189453
aa(lp3
F52.137844085693359
aF72.865318298339844
aF50.099266052246094
aF17.81062126159668
aF22.036231994628906
aa(lp4
F34.238632202148438
aF64.090591430664062
aF8.5244894027709961
aF36.069419860839844
aF178.40885961055756
aa(lp5
F71.000007629394531
aF53.000011444091797
aF4.4721360206604004
aF0.89442712068557739
aF63.43494987487793
aa(lp6
F79.352523803710938
aF85.326705932617188
aF23.727884292602539
aF41.048751831054688
aF124.07719421386719
aa(lp7
F34.000003814697266
aF56.500007629394531
aF2.1213202476501465
aF0.70710670948028564
aF45
aa(lp8
F101.36827850341797
aF65.467422485351562
aF6.0969510078430176
aF26.570663452148438
aF160.20112228393555
aa.(lp1
(lp2
F40.864814758300781
aF186.46780395507812
aF54.787139892578125
aF29.210042953491211
aF31.827449798583984
aa(lp3
F57.600009918212891
aF76.300010681152344
aF47.404636383056641
aF15.652474403381348
aF26.565048217773438
aa(lp4
F37.336021423339844
aF69.190170288085938
aF5.4502358436584473
aF36.448448181152344
aF173.4801983833313
aa(lp5
F90.103790283203125
aF107.34088134765625
aF11.783479690551758
aF33.662448883056641
aF103.13401794433594
aa(lp6
F105.56866455078125
aF77.060890197753906
aF7.3803057670593262
aF39.293766021728516
aF165.25643730163574
aa(lp7
F75.911766052246094
aF59.352947235107422
aF6.6884446144104004
aF0.85749286413192749
aF59.036245346069336
aa(lp8
F73
aF87.5
aF4
aF7
aF180
aa(lp9
F72.810813903808594
aF73.1351318359375
aF12.165525436401367
aF1.6439899206161499
aF9.4623260498046875
aa(lp10
F39.25
aF193.25
aF1.5811389684677124
aF9.4868335723876953
aF108.43495178222656
aa.(lp1
(lp2
F39.543567657470703
aF181.72634887695312
aF63.528617858886719
aF30.703962326049805
aF25.974395751953125
aa(lp3
F38.747173309326172
aF173.01509094238281
aF33.540515899658203
aF5.7743740081787109
aF10.619651794433594
aa(lp4
F52.162117004394531
aF79.156875610351562
aF51.583042144775391
aF20.843948364257812
aF20.095230102539062
aa(lp5
F75.294601440429688
aF60.832427978515625
aF15.807116508483887
aF1.7645153999328613
aF72.897270202636719
aa(lp6
F94.879989624023438
aF84.160003662109375
aF51.199993133544922
aF21.599996566772461
aF36.869899749755859
aa(lp7
F34.326278686523438
aF69.209922790527344
aF7.416473388671875
aF36.055473327636719
aF176.72951197624207
aa(lp8
F29.350006103515625
aF197.05003356933594
aF0.63245546817779541
aF4.1109609603881836
aF161.56505012512207
aa(lp9
F39
aF194.5
aF1
aF6
aF90
aa(lp10
F49.575473785400391
aF156.73582458496094
aF0.82416319847106934
aF13.59869384765625
aF105.94539642333984
aa.(lp1
(lp2
F46.5
aF177.5
aF25
aF49
aF180
aa(lp3
F72.79998779296875
aF185.90003967285156
aF49.193496704101562
aF27.280029296875
aF26.565048217773438
aa(lp4
F55.559993743896484
aF82.186355590820312
aF54.040306091308594
aF21.089439392089844
aF24.863700866699219
aa(lp5
F37.630943298339844
aF70.770751953125
aF6.7560214996337891
aF35.454921722412109
aF173.4801983833313
aa(lp6
F90.611831665039062
aF108.85990905761719
aF11.914973258972168
aF36.201236724853516
aF120.46554565429688
aa(lp7
F105.5
aF79.5
aF39
aF5
aF0
aa(lp8
F81.949996948242188
aF168.65000915527344
aF1.2649109363555908
aF14.862703323364258
aF108.43495178222656
aa(lp9
F87.5
aF177.49998474121094
aF9.4704618453979492
aF0.92847669124603271
aF21.801406860351562
aa(lp10
F46.941173553466797
aF102.23530578613281
aF0.9701424241065979
aF8.246211051940918
aF104.03623962402344
aa(lp11
F74.000007629394531
aF60.000007629394531
aF4.4721360206604004
aF0.89442712068557739
aF63.43494987487793
aa(lp12
F42.864864349365234
aF196.31083679199219
aF1.6439899206161499
aF6.0827627182006836
aF99.462326049804688
aa(lp13
F49.941173553466797
aF157.73530578613281
aF0.9701424241065979
aF10.429031372070312
aF104.03623962402344
aa(lp14
F71.500007629394531
aF64.5
aF3.1304950714111328
aF0.4472135603427887
aF26.565048217773438
aa(lp15
F93.5
aF60.5
aF1
aF5
aF90
aa.(lp1
(lp2
F35.771244049072266
aF74.240776062011719
aF7.646761417388916
aF36.300144195556641
aF174.95754861831665
aa(lp3
F54.286018371582031
aF83.892097473144531
aF52.077461242675781
aF20.812808990478516
aF21.317909240722656
aa(lp4
F25.887933731079102
aF208.59483337402344
aF3.807887077331543
aF10.241904258728027
aF113.19859313964844
aa(lp5
F78.689651489257812
aF102.77586364746094
aF1.6712582111358643
aF10.770329475402832
aF111.80140686035156
aa(lp6
F46.435237884521484
aF201.74610900878906
aF14.396313667297363
aF2.5913369655609131
aF59.743564605712891
aa(lp7
F105.50000762939453
aF69
aF4.4721360206604004
aF15.652474403381348
aF153.43494987487793
aa(lp8
F69.900009155273438
aF62.300006866455078
aF2.2360680103302002
aF0.4472135603427887
aF63.43494987487793
aa.(lp1
(lp2
F35.771244049072266
aF74.240776062011719
aF7.646761417388916
aF36.300144195556641
aF174.95754861831665
aa(lp3
F54.286018371582031
aF83.892097473144531
aF52.077461242675781
aF20.812808990478516
aF21.317909240722656
aa(lp4
F25.887933731079102
aF208.59483337402344
aF3.807887077331543
aF10.241904258728027
aF113.19859313964844
aa(lp5
F78.689651489257812
aF102.77586364746094
aF1.6712582111358643
aF10.770329475402832
aF111.80140686035156
aa(lp6
F46.435237884521484
aF201.74610900878906
aF14.396313667297363
aF2.5913369655609131
aF59.743564605712891
aa(lp7
F105.50000762939453
aF69
aF4.4721360206604004
aF15.652474403381348
aF153.43494987487793
aa(lp8
F69.900009155273438
aF62.300006866455078
aF2.2360680103302002
aF0.4472135603427887
aF63.43494987487793
aa.(lp1
(lp2
F56.773601531982422
aF183.90617370605469
aF80.52880859375
aF40.181190490722656
aF61.606977462768555
aa(lp3
F79.465522766113281
aF157.58621215820312
aF1.4855626821517944
aF13.927150726318359
aF111.80140686035156
aa(lp4
F23.249998092651367
aF193.24998474121094
aF3.5355339050292969
aF7.0710678100585938
aF98.130104064941406
aa(lp5
F28.500003814697266
aF196.99996948242188
aF1.1094003915786743
aF5.2696518898010254
aF123.69007110595703
aa(lp6
F71.538459777832031
aF49.307685852050781
aF7.2111024856567383
aF1.6641006469726562
aF56.309932708740234
aa(lp7
F36.459999084472656
aF189.72000122070312
aF7.2124896049499512
aF1.5556349754333496
aF81.86989688873291
aa(lp8
F98.500022888183594
aF48.500007629394531
aF0.4472135603427887
aF3.1304950714111328
aF116.56504821777344
aa.(lp1
(lp2
F18.137815475463867
aF55.58056640625
aF107.11357116699219
aF33.255794525146484
aF0.56726837158203125
aa(lp3
F1.5
aF56.999992370605469
aF0.99999988079071045
aF95.999984741210938
aF180
aa.(lp1
(lp2
F17.5
aF55.5
aF33
aF107
aF180
aa(lp3
F1.5
aF60.999992370605469
aF0.99999988079071045
aF87.999984741210938
aF180
aa.(lp1
(lp2
F16.499998092651367
aF52.999992370605469
aF30.999996185302734
aF103.99998474121094
aF180
aa.(lp1
(lp2
F17.5
aF55.5
aF33
aF107
aF180
aa.(lp1
(lp2
F43.457183837890625
aF22.686464309692383
aF23.125886917114258
aF42.625213623046875
aF176.98721265792847
aa(lp3
F39.569541931152344
aF126.46670532226562
aF147.06436157226562
aF62.938930511474609
aF0.987762451171875
aa(lp4
F27.351350784301758
aF76.108108520507812
aF4.6031718254089355
aF8.5487470626831055
aF170.53767776489258
aa(lp5
F30.400001525878906
aF101.70001983642578
aF3.5777084827423096
aF11.180339813232422
aF116.56504821777344
aa(lp6
F26.432435989379883
aF55.094596862792969
aF7.0691566467285156
aF0.98639392852783203
aF80.537677764892578
aa(lp7
F36.115856170654297
aF144.95729064941406
aF10.049270629882812
aF0.88345223665237427
aF6.3401870727539062
aa(lp8
F20.06756591796875
aF100.90541076660156
aF6.0827627182006836
aF0.82199490070343018
aF80.537677764892578
aa.(lp1
(lp2
F50.256694793701172
aF127.95412445068359
aF148.92471313476562
aF42.591144561767578
aF8.2971420288085938
aa(lp3
F42
aF22.5
aF22
aF43
aF180
aa(lp4
F22.192947387695312
aF83.348548889160156
aF20.677427291870117
aF36.845760345458984
aF165.06858158111572
aa(lp5
F38.970558166503906
aF110.573974609375
aF115.57929992675781
aF8.5371627807617188
aF4.3569717407226562
aa(lp6
F24.799999237060547
aF57.400005340576172
aF8.9442720413208008
aF2.683281421661377
aF26.565048217773438
aa(lp7
F28.600006103515625
aF192.30001831054688
aF0.89442723989486694
aF12.074767112731934
aF116.56504821777344
aa.(lp1
(lp2
F37.899002075195312
aF22.980051040649414
aF20.274673461914062
aF42.097415924072266
aF177.13759469985962
aa(lp3
F35.5
aF127.5
aF69
aF149
aF180
aa(lp4
F60.570102691650391
aF148.0546875
aF96.134368896484375
aF6.327141284942627
aF5.4773712158203125
aa(lp5
F24
aF184.5
aF1
aF2
aF90
aa.(lp1
(lp2
F53.084297180175781
aF129.81350708007812
aF149.41302490234375
aF36.854244232177734
aF11.513832092285156
aa(lp3
F20
aF97
aF38
aF82
aF180
aa(lp4
F23.896553039550781
aF58.741378784179688
aF6.3136410713195801
aF0.92847669124603271
aF68.198593139648438
aa.(lp1
(lp2
F59.887638092041016
aF127.82025909423828
aF149.60649108886719
aF28.032482147216797
aF12.994621276855469
aa(lp3
F35.5
aF19.5
aF21
aF37
aF180
aa(lp4
F25.867969512939453
aF158.38020324707031
aF74.368011474609375
aF11.422213554382324
aF8.5307693481445312
aa(lp5
F20.999998092651367
aF187.99998474121094
aF0.55470019578933716
aF4.4376015663146973
aF123.69007110595703
aa(lp6
F34
aF112
aF2
aF16
aF180
aa.(lp1
(lp2
F88.96923828125
aF78.74615478515625
aF158.76446533203125
aF44.032329559326172
aF7.1250152587890625
aa(lp3
F71.922393798828125
aF104.62319946289062
aF25.959999084472656
aF1.1599996089935303
aF16.260208129882812
aa(lp4
F83.250007629394531
aF6.2500009536743164
aF4.242640495300293
aF0.70710670948028564
aF45
aa(lp5
F80.77069091796875
aF71.079612731933594
aF24.999937057495117
aF1.4108314514160156
aF16.389541625976562
aa(lp6
F81.044822692871094
aF20.962070465087891
aF12.041595458984375
aF0.91350036859512329
aF4.7636489868164062
aa.(lp1
(lp2
F52.64013671875
aF130.13531494140625
aF148.67866516113281
aF39.406482696533203
aF11.093719482421875
aa(lp3
F20.370241165161133
aF84.569206237792969
aF61.29437255859375
aF39.448970794677734
aF5.617584228515625
aa(lp4
F25.5
aF66.5
aF3
aF9
aF180
aa(lp5
F24.000001907348633
aF58.500003814697266
aF4.0249223709106445
aF0.89442712068557739
aF63.43494987487793
aa(lp6
F11.566370010375977
aF72.995574951171875
aF21.219560623168945
aF4.589810848236084
aF86.185925006866455
aa.(lp1
(lp2
F14.5
aF51
aF27
aF86
aF180
aa(lp3
F1.5
aF52
aF1
aF76
aF180
aa.(lp1
(lp2
F33
aF18.5
aF20
aF35
aF180
aa(lp3
F21.5
aF69
aF3
aF6
aF180
aa(lp4
F21.646186828613281
aF124.67388916015625
aF28.809211730957031
aF132.42593383789062
aF172.68097972869873
aa(lp5
F58.031547546386719
aF123.22596740722656
aF149.926025390625
aF28.267238616943359
aF12.90740966796875
aa(lp6
F24.153844833374023
aF65.23077392578125
aF40.311008453369141
aF12.93562126159668
aF6.9112319946289062
aa(lp7
F18.349998474121094
aF183.95001220703125
aF0.94868320226669312
aF3.1622774600982666
aF108.43495178222656
aa(lp8
F18
aF179.5
aF1
aF2
aF90
aa(lp9
F32.028366088867188
aF72.002426147460938
aF48.166244506835938
aF0.9678795337677002
aF4.8990936279296875
aa(lp10
F20.900001525878906
aF1.7000007629394531
aF0.4472135603427887
aF2.2360680103302002
aF116.56504821777344
aa.(lp1
(lp2
F36
aF127.5
aF70
aF149
aF180
aa(lp3
F37
aF22
aF22
aF40
aF180
aa(lp4
F14.109755516052246
aF68.012199401855469
aF25.977289199829102
aF7.5067448616027832
aF69.775140762329102
aa(lp5
F26.5
aF75
aF3
aF6
aF180
aa(lp6
F27.766422271728516
aF56.357666015625
aF12.644493103027344
aF1.7087150812149048
aF70.016895294189453
aa(lp7
F35.200004577636719
aF1.8999992609024048
aF2.2360680103302002
aF0.89442712068557739
aF63.43494987487793
aa(lp8
F1.5
aF85.5
aF1
aF27
aF180
aa.(lp1
(lp2
F71.996078491210938
aF78.678352355957031
aF156.49270629882812
aF19.013010025024414
aF3.3446502685546875
aa(lp3
F97.797691345214844
aF78.262435913085938
aF152.94845581054688
aF16.421667098999023
aF12.283958435058594
aa(lp4
F79.300003051757812
aF68.600006103515625
aF18.024980545043945
aF1.5811386108398438
aF18.434951782226562
aa(lp5
F67.849998474121094
aF109.95000457763672
aF14.546475410461426
aF0.94868320226669312
aF18.434951782226562
aa(lp6
F96
aF1.5
aF1
aF16
aF90
aa(lp7
F79.229515075683594
aF24.524591445922852
aF0.9053574800491333
aF15.028933525085449
aF174.80557107925415
aa.(lp1
(lp2
F65.087501525878906
aF128.20932006835938
aF142.21589660644531
aF11.803410530090332
aF3.8785247802734375
aa(lp3
F27.047927856445312
aF132.28683471679688
aF43.524482727050781
aF148.69441223144531
aF172.53480911254883
aa(lp4
F26.5
aF78
aF3
aF6
aF180
aa(lp5
F29.615381240844727
aF62.423072814941406
aF12.203402519226074
aF2.4961512088775635
aF56.309932708740234
aa.(lp1
(lp2
F51.946975708007812
aF128.41032409667969
aF147.45220947265625
aF39.350826263427734
aF9.211029052734375
aa(lp3
F19.608816146850586
aF81.748603820800781
aF54.663280487060547
aF35.301567077636719
aF4.9697418212890625
aa(lp4
F14.094120025634766
aF77.776466369628906
aF34.491943359375
aF9.5449390411376953
aF49.398708343505859
aa(lp5
F24.512195587158203
aF58.890251159667969
aF7.8086886405944824
aF1.7179114818572998
aF51.340194702148438
aa.(lp1
(lp2
F37
aF22.5
aF22
aF41
aF180
aa(lp3
F49.739997863769531
aF127.31999206542969
aF149.76521301269531
aF43.699199676513672
aF8.1301040649414062
aa(lp4
F33
aF155
aF4
aF20
aF180
aa(lp5
F19.608274459838867
aF97.771171569824219
aF90.044837951660156
aF37.707263946533203
aF0.75384521484375
aa(lp6
F26.5
aF75
aF3
aF6
aF180
aa(lp7
F28.629312515258789
aF57.801723480224609
aF12.080193519592285
aF1.1817580461502075
aF66.801408767700195
aa(lp8
F23.399999618530273
aF190.19999694824219
aF0.89442712068557739
aF3.5777084827423096
aF116.56504821777344
aa.(lp1
(lp2
F49.900676727294922
aF131.82919311523438
aF146.64956665039062
aF39.654415130615234
aF9.2933120727539062
aa(lp3
F29.535610198974609
aF100.13951110839844
aF17.616401672363281
aF85.958038330078125
aF178.21008944511414
aa(lp4
F22
aF58.5
aF1
aF2
aF90
aa(lp5
F62.5
aF57.5
aF5
aF1
aF90
aa.(lp1
(lp2
F38
aF25
aF20
aF36
aF180
aa(lp3
F51.501224517822266
aF126.82520294189453
aF150.31832885742188
aF39.310218811035156
aF8.5307693481445312
aa(lp4
F29.950860977172852
aF99.890594482421875
aF96.033401489257812
aF16.853302001953125
aF0.83031463623046875
aa(lp5
F30.878389358520508
aF171.270263671875
aF9.4160585403442383
aF1.5112192630767822
aF35.537681579589844
aa(lp6
F23.000001907348633
aF55.500007629394531
aF4.0249223709106445
aF0.89442712068557739
aF63.43494987487793
aa(lp7
F37.713417053222656
aF4.5792675018310547
aF5.190281867980957
aF20.981992721557617
aF96.340187072753906
aa.(lp1
(lp2
F87.256721496582031
aF78.968048095703125
aF159.22903442382812
aF43.204856872558594
aF7.4808807373046875
aa(lp3
F69.937728881835938
aF103.63322448730469
aF25.954978942871094
aF1.4974024295806885
aF16.927513122558594
aa(lp4
F79.017311096191406
aF70.657447814941406
aF25.954978942871094
aF1.6637802124023438
aF16.927513122558594
aa(lp5
F80.5
aF15
aF2.1213202476501465
aF0.70710670948028564
aF45
aa(lp6
F79.376937866210938
aF24.515386581420898
aF0.86824309825897217
aF13.023646354675293
aF172.87498331069946
aa(lp7
F82
aF6.5000009536743164
aF6.3790526390075684
aF0.55470025539398193
aF33.6900634765625
aa.(lp1
(lp2
F78.009994506835938
aF77.930015563964844
aF158.816162109375
aF26.021528244018555
aF8.1301040649414062
aa(lp3
F100.21672058105469
aF63.991073608398438
aF124.16265869140625
aF17.676242828369141
aF11.673713684082031
aa(lp4
F68.950004577636719
aF107.65000152587891
aF15.811387062072754
aF0.94868320226669312
aF18.434951782226562
aa(lp5
F78.980003356933594
aF71.139999389648438
aF26.919998168945312
aF1.559999942779541
aF16.260208129882812
aa(lp6
F80.159996032714844
aF19.379997253417969
aF15.132086753845215
aF1.8384778499603271
aF8.1301040649414062
aa(lp7
F72.617652893066406
aF95.029426574707031
aF6.0633902549743652
aF0.72760689258575439
aF14.036239624023438
aa.(lp1
(lp2
F83.578842163085938
aF75.444129943847656
aF152.703125
aF43.6077880859375
aF7.5563430786132812
aa.(lp1
(lp2
F21.418966293334961
aF108.12241363525391
aF27.01213264465332
aF98.946601867675781
aF176.63353967666626
aa(lp3
F48.020492553710938
aF129.587890625
aF150.31205749511719
aF42.943912506103516
aF8.6731719970703125
aa(lp4
F24.5
aF78
aF3
aF6
aF180
aa(lp5
F33.382759094238281
aF82.406906127929688
aF55.059162139892578
aF3.8200924396514893
aF4.7636489868164062
aa.(lp1
(lp2
F25.293132781982422
aF81.011161804199219
aF52.414009094238281
aF25.079032897949219
aF5.042449951171875
aa(lp3
F26.5
aF78
aF3
aF6
aF180
aa(lp4
F38.302040100097656
aF23.342761993408203
aF21.023796081542969
aF43.61724853515625
aF177.27368903160095
aa(lp5
F51.900001525878906
aF130.19998168945312
aF150.654296875
aF38.208038330078125
aF6.5819473266601562
aa(lp6
F42.070137023925781
aF6.4728507995605469
aF21.689708709716797
aF9.9886817932128906
aF87.273689031600952
aa(lp7
F15.209623336791992
aF74.163131713867188
aF28.19195556640625
aF8.7645473480224609
aF46.636577606201172
aa.(lp1
(lp2
F88.338905334472656
aF78.410995483398438
aF158.15042114257812
aF43.625728607177734
aF7.6668014526367188
aa(lp3
F102.75001525878906
aF5.2500042915344238
aF0.70710670948028564
aF4.242640495300293
aF135
aa(lp4
F79.950004577636719
aF71.150001525878906
aF23.084629058837891
aF1.2649115324020386
aF18.434951782226562
aa(lp5
F69.349998474121094
aF108.45001220703125
aF15.811387062072754
aF0.94868320226669312
aF18.434951782226562
aa(lp6
F81
aF23
aF2
aF22
aF180
aa(lp7
F73.692306518554688
aF94.538467407226562
aF7.0601806640625
aF0.78446453809738159
aF11.309928894042969
aa.(lp1
(lp2
F89.506416320800781
aF79.066482543945312
aF158.83845520019531
aF43.725639343261719
aF7.4808807373046875
aa(lp3
F80.980003356933594
aF70.639999389648438
aF27.880001068115234
aF1.8399996757507324
aF16.260208129882812
aa(lp4
F71.536582946777344
aF105.67073059082031
aF26.248769760131836
aF1.1694997549057007
aF17.650115966796875
aa(lp5
F81.364707946777344
aF18.858823776245117
aF10.195732116699219
aF1.5185134410858154
aF12.52880859375
aa.(lp1
(lp2
F86.131675720214844
aF78.950424194335938
aF158.47441101074219
aF43.092079162597656
aF7.6668014526367188
aa.(lp1
(lp2
F78.142745971679688
aF77.098136901855469
aF158.40943908691406
aF27.598901748657227
aF8.9937896728515625
aa(lp3
F100.96129608154297
aF64.103240966796875
aF123.97196197509766
aF16.240867614746094
aF12.127098083496094
aa(lp4
F82.250007629394531
aF6.2500009536743164
aF7.0710678100585938
aF0.70710676908493042
aF45
aa(lp5
F79.658821105957031
aF20.435291290283203
aF15.032514572143555
aF1.8407161235809326
aF4.398712158203125
aa(lp6
F70.056793212890625
aF102.66239166259766
aF25.959999084472656
aF1.4399995803833008
aF16.260208129882812
aa(lp7
F77.500007629394531
aF75.500007629394531
aF25.93067741394043
aF1.2649111747741699
aF18.434951782226562
aa.(lp1
(lp2
F91.213973999023438
aF78.595710754394531
aF158.00993347167969
aF43.354637145996094
aF7.6333236694335938
aa(lp3
F82.491897583007812
aF70.651359558105469
aF28.158723831176758
aF1.4704294204711914
aF17.102729797363281
aa(lp4
F83.579994201660156
aF18.439998626708984
aF11.172287940979004
aF1.5556349754333496
aF8.1301040649414062
aa(lp5
F73.578819274902344
aF103.17149353027344
aF29.119056701660156
aF1.4914636611938477
aF16.504356384277344
aa.(lp1
(lp2
F67.572250366210938
aF77.891281127929688
aF154.24925231933594
aF23.501638412475586
aF1.263671875
aa(lp3
F98.270698547363281
aF62.771507263183594
aF121.59187316894531
aF13.009966850280762
aF12.425941467285156
aa(lp4
F65.545875549316406
aF101.51377105712891
aF24.041440963745117
aF1.3409571647644043
aF16.699241638183594
aa(lp5
F73.5
aF73
aF31.306549072265625
aF1.5811388492584229
aF18.434944152832031
aa(lp6
F93
aF1.5
aF1
aF20
aF90
aa(lp7
F75.5
aF20
aF1
aF8
aF180
aa(lp8
F77.260002136230469
aF5.8199996948242188
aF5
aF0.60000002384185791
aF36.869899749755859
aa.(lp1
(lp2
F77.510986328125
aF76.992164611816406
aF158.32353210449219
aF25.132740020751953
aF9.5222625732421875
aa(lp3
F101.22711944580078
aF63.609809875488281
aF124.53447723388672
aF17.744022369384766
aF11.768287658691406
aa(lp4
F80.531036376953125
aF138.62757873535156
aF27.07282829284668
aF4.9827289581298828
aF4.7636489868164062
aa(lp5
F80.8375244140625
aF67.764480590820312
aF19.924858093261719
aF1.7565995454788208
aF17.52557373046875
aa(lp6
F73.037834167480469
aF94.150581359863281
aF31.315589904785156
aF1.6948165893554688
aF15.642242431640625
aa(lp7
F67.650001525878906
aF113.05001068115234
aF4.1109609603881836
aF0.63245546817779541
aF18.434951782226562
aa.(lp1
(lp2
F88.580039978027344
aF80.345558166503906
aF158.53509521484375
aF28.995157241821289
aF18.145576477050781
aa(lp3
F69.501739501953125
aF58.565757751464844
aF126.15616607666016
aF19.091882705688477
aF16.927513122558594
aa(lp4
F72.3917236328125
aF89.468147277832031
aF59.480659484863281
aF1.9187307357788086
aF16.389541625976562
aa(lp5
F79.060981750488281
aF19.451221466064453
aF9.0553855895996094
aF0.88345223665237427
aF6.3401870727539062
aa(lp6
F80.300003051757812
aF7.9000000953674316
aF2.2360680103302002
aF0.4472135603427887
aF26.565048217773438
aa(lp7
F83.900009155273438
aF5.2999987602233887
aF2.2360680103302002
aF0.4472135603427887
aF63.43494987487793
aa.(lp1
(lp2
F84.722518920898438
aF79.95648193359375
aF158.76448059082031
aF43.294120788574219
aF8.9149246215820312
aa(lp3
F72.110588073730469
aF87.185028076171875
aF60.437541961669922
aF2.0590522289276123
aF16.8583984375
aa(lp4
F78.5
aF29.5
aF0.63245546817779541
aF5.0596437454223633
aF161.56505012512207
aa(lp5
F78.219985961914062
aF18.459999084472656
aF9.0509672164916992
aF0.84852820634841919
aF8.1301040649414062
aa.(lp1
(lp2
F82.284271240234375
aF77.784942626953125
aF160.29690551757812
aF27.59916877746582
aF9.5301284790039062
aa(lp3
F106.65148162841797
aF63.774868011474609
aF122.97817230224609
aF14.715476989746094
aF10.850105285644531
aa(lp4
F83.057228088378906
aF71.67730712890625
aF24.039716720581055
aF1.4727034568786621
aF17.650115966796875
aa(lp5
F72.200729370117188
aF108.57298278808594
aF18.026947021484375
aF1.1106650829315186
aF19.983108520507812
aa(lp6
F84.800003051757812
aF29.900001525878906
aF0.94868320226669312
aF4.1109609603881836
aF161.5650520324707
aa(lp7
F86.500007629394531
aF8.0000009536743164
aF4.9497470855712891
aF0.70710670948028564
aF45
aa(lp8
F76.894119262695312
aF91.976455688476562
aF12.148105621337891
aF0.86772191524505615
aF12.52880859375
aa(lp9
F84.384002685546875
aF20.38800048828125
aF11.180341720581055
aF1.252198338508606
aF10.304847717285156
aa.(lp1
(lp2
F35.161731719970703
aF130.41323852539062
aF148.83023071289062
aF66.006797790527344
aF1.1457595825195312
aa(lp3
F23.750001907348633
aF79.250007629394531
aF0.70710670948028564
aF1.4142134189605713
aF135
aa(lp4
F23.5
aF58.5
aF1
aF9
aF90
aa(lp5
F31.639595031738281
aF74.182373046875
aF41.593265533447266
aF3.774648904800415
aF9.68878173828125
aa.(lp1
(lp2
F85.186744689941406
aF79.575355529785156
aF159.62574768066406
aF43.376567840576172
aF8.5836181640625
aa(lp3
F68.597305297851562
aF100.68378448486328
aF28.158723831176758
aF1.543951153755188
aF17.102729797363281
aa(lp4
F76.850006103515625
aF72.450004577636719
aF26.246902465820312
aF1.2649106979370117
aF18.434951782226562
aa(lp5
F95.5
aF1.5
aF1
aF15
aF90
aa(lp6
F79.060981750488281
aF19.451221466064453
aF9.0553855895996094
aF0.88345223665237427
aF6.3401870727539062
aa.(lp1
(lp2
F25.857463836669922
aF119.13405609130859
aF35.925643920898438
aF151.42066955566406
aF172.63525485992432
aa(lp3
F58.82659912109375
aF116.02848815917969
aF144.12124633789062
aF12.475344657897949
aF1.9749298095703125
aa(lp4
F19.500001907348633
aF55.000007629394531
aF0.70710670948028564
aF2.1213202476501465
aF135
aa(lp5
F19.100002288818359
aF175.70001220703125
aF2.2360680103302002
aF0.4472135603427887
aF63.43494987487793
aa.(lp1
(lp2
F35.5
aF129.5
aF69
aF149
aF180
aa(lp3
F39
aF23
aF26
aF44
aF180
aa(lp4
F22.750001907348633
aF57.750007629394531
aF2.8284268379211426
aF0.70710670948028564
aF45
aa.(lp1
(lp2
F55.866847991943359
aF116.23445129394531
aF147.88908386230469
aF37.642410278320312
aF17.327919006347656
aa(lp3
F22.480770111083984
aF67.403846740722656
aF7.4524130821228027
aF32.751392364501953
aF168.69006729125977
aa(lp4
F22
aF43.000003814697266
aF9.4868335723876953
aF3.1622776985168457
aF71.565052032470703
aa(lp5
F29.106929779052734
aF101.45546722412109
aF121.24878692626953
aF12.937594413757324
aF1.3478927612304688
aa(lp6
F45.750003814697266
aF1.7500002384185791
aF1.4142134189605713
aF0.70710670948028564
aF45
aa(lp7
F31.148378372192383
aF142.03242492675781
aF22.022489547729492
aF1.398253321647644
aF2.8624038696289062
aa.(lp1
(lp2
F79.470634460449219
aF77.668800354003906
aF160.50386047363281
aF28.314128875732422
aF9.865814208984375
aa(lp3
F102.94352722167969
aF64.049385070800781
aF124.19358062744141
aF15.20457935333252
aF12.578933715820312
aa(lp4
F75.097145080566406
aF88.029434204101562
aF60.727546691894531
aF1.7690448760986328
aF16.8583984375
aa(lp5
F82.225616455078125
aF27.030490875244141
aF0.88345223665237427
aF12.03703784942627
aF173.65980863571167
aa(lp6
F82.827590942382812
aF15.931036949157715
aF6.3136410713195801
aF0.74278146028518677
aF21.801406860351562
aa(lp7
F85.254104614257812
aF6.7950811386108398
aF7.8102502822875977
aF0.64018464088439941
aF39.805568695068359
aa.(lp1
(lp2
F89.61834716796875
aF77.357261657714844
aF156.62710571289062
aF43.509616851806641
aF9.1966552734375
aa.(lp1
(lp2
F50.703056335449219
aF129.72708129882812
aF150.20405578613281
aF40.970748901367188
aF7.5946426391601562
aa(lp3
F22.242929458618164
aF99.702186584472656
aF89.189544677734375
aF35.144851684570312
aF2.8985824584960938
aa(lp4
F24.953847885131836
aF58.130779266357422
aF10.04681396484375
aF0.99227780103683472
aF82.874983310699463
aa(lp5
F24.700004577636719
aF66.900009155273438
aF0.4472135603427887
aF2.2360680103302002
aF153.43494987487793
aa.(lp1
(lp2
F82.3648681640625
aF76.810821533203125
aF157.329833984375
aF43.730136871337891
aF9.4623260498046875
aa(lp3
F73.8095703125
aF71.098503112792969
aF33.222454071044922
aF1.7759071588516235
aF17.650115966796875
aa(lp4
F64.800003051757812
aF101.60001373291016
aF26.563131332397461
aF1.2649106979370117
aF18.434951782226562
aa(lp5
F78.500007629394531
aF5.000004768371582
aF3.5355339050292969
aF0.70710670948028564
aF45
aa.(lp1
(lp2
F26.930984497070312
aF130.30513000488281
aF44.739360809326172
aF148.72056579589844
aF172.9236216545105
aa(lp3
F66.234092712402344
aF126.70853424072266
aF143.11824035644531
aF11.373745918273926
aF4.361572265625
aa(lp4
F15.080415725708008
aF78.230926513671875
aF32.621795654296875
aF6.1647486686706543
aF47.602561950683594
aa(lp5
F23.600002288818359
aF57.20001220703125
aF5.3665633201599121
aF0.89442712068557739
aF63.43494987487793
aa(lp6
F6.2123889923095703
aF99.185829162597656
aF8.4664878845214844
aF21.260292053222656
aF131.1859245300293
aa.(lp1
(lp2
F17.5
aF54.5
aF33
aF105
aF180
aa.(lp1
(lp2
F19.098014831542969
aF88.214317321777344
aF20.508548736572266
aF89.6248779296875
aF169.46081638336182
aa(lp3
F27.946527481079102
aF153.5274658203125
aF16.504423141479492
aF37.632232666015625
aF126.25384140014648
aa(lp4
F54.9176025390625
aF85.145057678222656
aF144.04240417480469
aF10.717290878295898
aF4.3250579833984375
aa(lp5
F25.381797790527344
aF36.859294891357422
aF48.166065216064453
aF3.6817581653594971
aF4.9697418212890625
aa(lp6
F4.8635368347167969
aF33.101528167724609
aF22.008384704589844
aF8.6912097930908203
aF37.405357360839844
aa(lp7
F49.569999694824219
aF14.989997863769531
aF7.0710678100585938
aF0.98994958400726318
aF81.869897842407227
aa(lp8
F14.650001525878906
aF22.950000762939453
aF0.63245546817779541
aF4.1109609603881836
aF161.56505012512207
aa.(lp1
(lp2
F60.734233856201172
aF127.88702392578125
aF148.34208679199219
aF25.139972686767578
aF12.90740966796875
aa(lp3
F19.999996185302734
aF124.99998474121094
aF37.999992370605469
aF143.99996948242188
aF180
aa(lp4
F13.5
aF70.5
aF25
aF7
aF90
aa(lp5
F22.000001907348633
aF55.000007629394531
aF2.683281421661377
aF0.89442712068557739
aF63.43494987487793
aa(lp6
F25.750003814697266
aF76.250007629394531
aF0.70710670948028564
aF1.4142134189605713
aF135
aa.(lp1
(lp2
F19.388675689697266
aF81.980049133300781
aF53.423175811767578
aF34.356887817382812
aF5.389312744140625
aa(lp3
F51.519229888916016
aF129.90383911132812
aF148.26380920410156
aF39.027111053466797
aF11.309928894042969
aa(lp4
F13.162071228027344
aF74.944839477539062
aF24.249282836914062
aF6.8927750587463379
aF85.236358165740967
aa(lp5
F35.948387145996094
aF127.54825592041016
aF31.016109466552734
aF2.9317054748535156
aF1.909149169921875
aa(lp6
F21.750003814697266
aF58.750007629394531
aF1.4142134189605713
aF0.70710670948028564
aF45
aa(lp7
F1.6980198621749878
aF84.519798278808594
aF15.025060653686523
aF0.89553350210189819
aF5.7105941772460938
aa(lp8
F31.700004577636719
aF5.0999994277954102
aF2.2360680103302002
aF0.4472135603427887
aF26.565048217773438
aa.(lp1
(lp2
F31.659996032714844
aF140.37998962402344
aF19.233304977416992
aF3.3941128253936768
aF8.1301040649414062
aa(lp3
F49.4122314453125
aF130.29170227050781
aF147.11431884765625
aF39.16082763671875
aF10.840301513671875
aa(lp4
F25.505905151367188
aF88.038742065429688
aF69.06494140625
aF20.193889617919922
aF2.6425399780273438
aa(lp5
F22.500003814697266
aF78.000007629394531
aF2.1213202476501465
aF0.70710670948028564
aF45
aa(lp6
F34.5
aF127
aF1
aF4
aF180
aa.(lp1
(lp2
F36
aF21
aF20
aF38
aF180
aa(lp3
F57.866264343261719
aF126.72976684570312
aF148.24198913574219
aF25.539638519287109
aF12.23150634765625
aa(lp4
F27.242753982543945
aF167.52691650390625
aF53.703094482421875
aF13.815733909606934
aF15.068489074707031
aa(lp5
F26.007427215576172
aF83.824256896972656
aF8.4013786315917969
aF41.723701477050781
aF155.85445976257324
aa(lp6
F35.175163269042969
aF122.59555053710938
aF33.014663696289062
aF5.5321869850158691
aF2.04541015625
aa(lp7
F33.3602294921875
aF74.357414245605469
aF49.162307739257812
aF3.7250730991363525
aF4.9697418212890625
aa(lp8
F32.003890991210938
aF2.5622572898864746
aF16.155977249145508
aF2.1208617687225342
aF86.423665523529053
aa(lp9
F22.700004577636719
aF71.600013732910156
aF3.1304950714111328
aF0.89442712068557739
aF26.565048217773438
aa(lp10
F23.5
aF53.5
aF1
aF9
aF90
aa(lp11
F20.500001907348633
aF187.50001525878906
aF0.4472135603427887
aF3.1304950714111328
aF116.56504821777344
aa.(lp1
(lp2
F57.939842224121094
aF126.83142852783203
aF149.72056579589844
aF28.168550491333008
aF13.753067016601562
aa(lp3
F35.896907806396484
aF21.231958389282227
aF22.02271842956543
aF39.504665374755859
aF177.39743804931641
aa(lp4
F25.26551628112793
aF76.313804626464844
aF52.401699066162109
aF19.515689849853516
aF4.7636489868164062
aa(lp5
F29.351913452148438
aF158.10348510742188
aF71.895988464355469
aF11.907419204711914
aF16.389541625976562
aa(lp6
F27.878366470336914
aF169.27027893066406
aF9.4160585403442383
aF1.5112192630767822
aF35.537681579589844
aa(lp7
F22.5
aF73
aF1
aF4
aF180
aa(lp8
F21.800003051757812
aF182.10000610351562
aF6.7082037925720215
aF0.89442706108093262
aF63.43494987487793
aa(lp9
F34.637557983398438
aF112.28166961669922
aF3.3040928840637207
aF15.132743835449219
aF172.40535640716553
aa(lp10
F23.556179046630859
aF189.41011047363281
aF0.74199849367141724
aF10.281979560852051
aF122.0053825378418
aa.(lp1
(lp2
F87.680923461914062
aF79.627143859863281
aF158.27923583984375
aF43.661533355712891
aF8.5307693481445312
aa(lp3
F69.577865600585938
aF105.18386840820312
aF27.201696395874023
aF1.4727034568786621
aF17.650115966796875
aa(lp4
F79.557228088378906
aF71.67730712890625
aF28.154623031616211
aF1.8192218542098999
aF17.650115966796875
aa(lp5
F99.750015258789062
aF1.7500040531158447
aF1.4142134189605713
aF0.70710670948028564
aF45
aa(lp6
F74.200004577636719
aF88.399993896484375
aF3.1622774600982666
aF0.63245546817779541
aF18.434951782226562
aa(lp7
F81.800003051757812
aF16.600002288818359
aF3.1622774600982666
aF0.63245546817779541
aF18.434951782226562
aa.(lp1
(lp2
F76.093063354492188
aF77.040252685546875
aF159.78254699707031
aF27.076055526733398
aF10.664573669433594
aa(lp3
F97.224266052246094
aF78.292564392089844
aF153.14425659179688
aF16.488103866577148
aF12.724357604980469
aa(lp4
F67.281021118164062
aF109.60218811035156
aF18.026947021484375
aF1.1106650829315186
aF19.983108520507812
aa(lp5
F83.000007629394531
aF7.0000009536743164
aF5.6568536758422852
aF1.4142134189605713
aF45
aa(lp6
F81.000007629394531
aF15.499996185302734
aF3.5355339050292969
aF0.70710670948028564
aF45
aa.(lp1
(lp2
F87.173187255859375
aF79.098197937011719
aF159.41786193847656
aF43.992984771728516
aF8.2971420288085938
aa(lp3
F69.096336364746094
aF102.67890167236328
aF32.27874755859375
aF1.5325223207473755
aF16.699241638183594
aa(lp4
F78.000007629394531
aF72.5
aF26.246904373168945
aF0.94868350028991699
aF18.434951782226562
aa(lp5
F80.149986267089844
aF18.94999885559082
aF8.0610179901123047
aF0.84852820634841919
aF8.1301040649414062
aa.(lp1
(lp2
F38
aF23
aF24
aF44
aF180
aa(lp3
F26.770490646362305
aF161.52458190917969
aF76.231101989746094
aF13.3992919921875
aF5.194427490234375
aa(lp4
F60.450702667236328
aF131.254638671875
aF150.45553588867188
aF25.934572219848633
aF12.445098876953125
aa(lp5
F23.808071136474609
aF83.446212768554688
aF61.066822052001953
aF31.794305801391602
aF8.5307693481445312
aa(lp6
F23.5
aF77
aF1
aF4
aF180
aa(lp7
F22.931035995483398
aF192.67240905761719
aF0.92847669124603271
aF6.6850318908691406
aF111.80140686035156
aa(lp8
F23.5
aF57.5
aF1
aF7
aF90
aa.(lp1
(lp2
F35.499992370605469
aF128.99998474121094
aF68.999984741210938
aF145.99996948242188
aF180
aa(lp3
F25.794116973876953
aF57.676475524902344
aF10.429031372070312
aF2.1828205585479736
aF75.96375560760498
aa(lp4
F32.700008392333984
aF172.60000610351562
aF3.1304950714111328
aF0.89442712068557739
aF26.565048217773438
aa.(lp1
(lp2
F72.484024047851562
aF76.017112731933594
aF156.00270080566406
aF24.032375335693359
aF9.34002685546875
aa(lp3
F97.178092956542969
aF62.6917724609375
aF121.045654296875
aF16.701089859008789
aF12.425941467285156
aa(lp4
F75.723091125488281
aF135.355712890625
aF26.463409423828125
aF5.3321795463562012
aF9.0902786254882812
aa(lp5
F75.248802185058594
aF67.718399047851562
aF27.880001068115234
aF2.3999996185302734
aF16.260208129882812
aa(lp6
F66.184257507324219
aF99.198654174804688
aF33.240371704101562
aF1.703839898109436
aF16.189201354980469
aa(lp7
F77.300010681152344
aF12.400002479553223
aF3.1304950714111328
aF0.89442712068557739
aF26.565048217773438
aa(lp8
F78.750007629394531
aF4.7500042915344238
aF2.8284268379211426
aF0.70710670948028564
aF45
aa(lp9
F99.750015258789062
aF1.7500040531158447
aF1.4142134189605713
aF0.70710670948028564
aF45
aa.(lp1
(lp2
F84.6199951171875
aF77.660003662109375
aF157.54339599609375
aF43.840621948242188
aF8.1301040649414062
aa(lp3
F70.962265014648438
aF85.632087707519531
aF61.400169372558594
aF1.9230479001998901
aF15.945396423339844
aa(lp4
F77.513519287109375
aF16.918918609619141
aF10.192737579345703
aF1.3151919841766357
aF9.4623260498046875
aa(lp5
F79.653846740722656
aF5.2307720184326172
aF3.6055512428283691
aF0.55470019578933716
aF56.309932708740234
aa.(lp1
(lp2
F83.410003662109375
aF77.130012512207031
aF156.55343627929688
aF43.274929046630859
aF8.1301040649414062
aa(lp3
F69.772384643554688
aF85.580696105957031
aF59.481002807617188
aF1.9531077146530151
aF16.504356384277344
aa(lp4
F76.900001525878906
aF14.30000114440918
aF9.4868316650390625
aF1.2649109363555908
aF18.434951782226562
aa(lp5
F76.852958679199219
aF26.911767959594727
aF0.72760689258575439
aF4.123105525970459
aF165.96375560760498
aa.(lp1
(lp2
F88.0086669921875
aF79.193634033203125
aF158.97578430175781
aF43.260272979736328
aF8.7461624145507812
aa(lp3
F79.209228515625
aF72.573844909667969
aF26.23731803894043
aF1.220340371131897
aF19.440032958984375
aa(lp4
F70.158370971679688
aF104.55656433105469
aF26.234237670898438
aF1.2108108997344971
aF19.653823852539062
aa(lp5
F83.099998474121094
aF7.6999979019165039
aF5
aF1
aF36.869899749755859
aa(lp6
F98.5
aF1.5
aF1
aF15
aF90
aa.(lp1
(lp2
F35
aF131
aF66
aF150
aF180
aa(lp3
F43.488231658935547
aF27.652938842773438
aF26.997169494628906
aF5.0619692802429199
aF4.398712158203125
aa(lp4
F25.324840545654297
aF62.095539093017578
aF13.886712074279785
aF1.7557913064956665
aF61.389537811279297
aa(lp5
F28.000003814697266
aF197.50003051757812
aF0.70710670948028564
aF2.1213202476501465
aF135
aa(lp6
F24.750005722045898
aF77.250007629394531
aF0.70710670948028564
aF1.4142134189605713
aF135
aa(lp7
F21.400005340576172
aF194.20002746582031
aF0.89442712068557739
aF5.3665633201599121
aF116.56504821777344
aa(lp8
F30.74615478515625
aF165.53077697753906
aF11.039091110229492
aF0.86824309825897217
aF7.1250152587890625
aa.(lp1
(lp2
F35.500003814697266
aF23.000001907348633
aF20.589767456054688
aF44.032333374023438
aF172.87498331069946
aa(lp3
F18.496150970458984
aF127.86167907714844
aF144.10887145996094
aF35.583091735839844
aF0.60950469970703125
aa(lp4
F60.058834075927734
aF131.90223693847656
aF150.09770202636719
aF25.985193252563477
aF12.067764282226562
aa(lp5
F39.5
aF6
aF10
aF21
aF90
aa(lp6
F6.1800003051757812
aF79.260002136230469
aF35
aF15.800000190734863
aF36.869899749755859
aa(lp7
F22.400009155273438
aF187.30003356933594
aF5.813776969909668
aF0.89442712068557739
aF63.43494987487793
aa(lp8
F19.961538314819336
aF60.307685852050781
aF7.2111024856567383
aF2.4961509704589844
aF33.6900634765625
aa(lp9
F18.5
aF98.5
aF3
aF1
aF90
aa.(lp1
(lp2
F83.850006103515625
aF74.050003051757812
aF151.17941284179688
aF43.840621948242188
aF8.1301040649414062
aa.(lp1
(lp2
F16.999998092651367
aF52.499992370605469
aF31.999996185302734
aF102.99998474121094
aF180
aa.(lp1
(lp2
F87.093246459960938
aF78.093070983886719
aF156.943603515625
aF43.449085235595703
aF8.9149246215820312
aa(lp3
F74.817131042480469
aF86.225418090820312
aF62.094417572021484
aF2.2271556854248047
aF15.422164916992188
aa(lp4
F82.750007629394531
aF6.7500009536743164
aF2.8284268379211426
aF0.70710670948028564
aF45
aa(lp5
F80.5
aF28.500003814697266
aF0.72760689258575439
aF7.0335330963134766
aF165.96375560760498
aa.(lp1
(lp2
F76.256607055664062
aF77.878761291503906
aF159.91587829589844
aF27.129919052124023
aF8.9937896728515625
aa(lp3
F99.087692260742188
aF64.130401611328125
aF123.97196197509766
aF16.499429702758789
aF12.127098083496094
aa(lp4
F72.688949584960938
aF86.1900634765625
aF62.094417572021484
aF1.9612264633178711
aF15.422164916992188
aa(lp5
F78.382354736328125
aF29.029415130615234
aF0.72760689258575439
aF6.0633902549743652
aF165.96375560760498
aa(lp6
F78.175682067871094
aF18.445945739746094
aF7.0691566467285156
aF0.82199496030807495
aF9.4623260498046875
aa.(lp1
(lp2
F88.217842102050781
aF79.396255493164062
aF158.38801574707031
aF42.879478454589844
aF7.5563430786132812
aa(lp3
F74.566032409667969
aF86.018875122070312
aF56.043109893798828
aF1.9230479001998901
aF15.945396423339844
aa(lp4
F82.750007629394531
aF6.7500009536743164
aF8.4852809906005859
aF0.70710676908493042
aF45
aa(lp5
F97
aF1.5
aF16
aF1
aF90
aa(lp6
F80.5
aF24.5
aF1
aF19
aF180
aa.(lp1
(lp2
F18.081293106079102
aF111.38285827636719
aF121.09837341308594
aF34.734298706054688
aF0.54051971435546875
aa(lp3
F28.845281600952148
aF22.441507339477539
aF9.725128173828125
aF38.625785827636719
aF159.07549667358398
aa(lp4
F47.80999755859375
aF124.83003234863281
aF150.47230529785156
aF39.739398956298828
aF8.1301040649414062
aa(lp5
F39.400001525878906
aF14.299999237060547
aF18.335756301879883
aF36.671512603759766
aF153.43494987487793
aa(lp6
F61.384613037109375
aF55.076915740966797
aF3.3282012939453125
aF7.2111024856567383
aF146.3099365234375
aa(lp7
F11.65882396697998
aF72.564704895019531
aF23.645421981811523
aF7.8094964027404785
aF40.601295471191406
aa(lp8
F17.400001525878906
aF54.200004577636719
aF5.3665633201599121
aF1.7888542413711548
aF26.565048217773438
aa(lp9
F23.499998092651367
aF181.50001525878906
aF3.1304950714111328
aF0.44721353054046631
aF63.43494987487793
aa.(lp1
(lp2
F19.384613037109375
aF87.423095703125
aF64.99420166015625
aF37.582523345947266
aF7.1250152587890625
aa(lp3
F34.052024841308594
aF196.838134765625
aF16.450662612915039
aF39.890167236328125
aF126.25383377075195
aa(lp4
F61.257476806640625
aF128.57510375976562
aF143.16847229003906
aF12.535566329956055
aF2.447052001953125
aa(lp5
F32.410873413085938
aF154.04154968261719
aF49.819541931152344
aF6.1731424331665039
aF10.5391845703125
aa(lp6
F18.5
aF59.5
aF5.6568536758422852
aF1.4142134189605713
aF45
aa(lp7
F17.5
aF99.5
aF3
aF1
aF90
aa.(lp1
(lp2
F84.996200561523438
aF76.9259033203125
aF155.18391418457031
aF43.735500335693359
aF8.3658905029296875
aa.(lp1
(lp2
F89.217765808105469
aF79.596626281738281
aF159.7322998046875
aF43.435142517089844
aF7.6668014526367188
aa(lp3
F85.672126770019531
aF6.1065573692321777
aF7.8102502822875977
aF1.0242949724197388
aF50.194431304931641
aa(lp4
F71.578811645507812
aF104.17150115966797
aF29.119056701660156
aF1.4914636611938477
aF16.504356384277344
aa(lp5
F80.0994873046875
aF73.530281066894531
aF28.159486770629883
aF1.7469696998596191
aF16.927513122558594
aa(lp6
F81.647064208984375
aF18.411764144897461
aF9.2163534164428711
aF0.9701424241065979
aF14.036239624023438
aa.(lp1
(lp2
F75.188957214355469
aF78.221603393554688
aF158.17037963867188
aF23.816396713256836
aF6.519805908203125
aa(lp3
F99.402664184570312
aF63.611095428466797
aF124.29817962646484
aF18.934350967407227
aF7.5326004028320312
aa(lp4
F72.104354858398438
aF87.289657592773438
aF64.030738830566406
aF2.5371267795562744
aF14.697319030761719
aa(lp5
F80.750007629394531
aF6.7499971389770508
aF4.242640495300293
aF0.70710670948028564
aF45
aa(lp6
F77.094268798828125
aF20.963119506835938
aF12.041254043579102
aF0.90535742044448853
aF5.194427490234375
aa.(lp1
(lp2
F86.185394287109375
aF79.084793090820312
aF158.87138366699219
aF43.646652221679688
aF7.05230712890625
aa(lp3
F72.25384521484375
aF90.069229125976562
aF60.166179656982422
aF1.9295276403427124
aF15.255119323730469
aa.(lp1
(lp2
F69.5816650390625
aF78.883071899414062
aF156.22261047363281
aF23.512510299682617
aF1.2364044189453125
aa(lp3
F97.836532592773438
aF64.183883666992188
aF123.76188659667969
aF16.030790328979492
aF12.127098083496094
aa(lp4
F75.787139892578125
aF72.590682983398438
aF25.947483062744141
aF1.4554681777954102
aF17.525566101074219
aa(lp5
F67.948272705078125
aF102.12068176269531
aF28.857059478759766
aF1.4484239816665649
aF15.068489074707031
aa(lp6
F76.93243408203125
aF17.905406951904297
aF8.0555505752563477
aF1.479590892791748
aF9.4623260498046875
aa(lp7
F93
aF1.5
aF16
aF1
aF90
aa(lp8
F77.650001525878906
aF32.950004577636719
aF0.63245546817779541
aF4.1109609603881836
aF161.56505012512207
aa.(lp1
(lp2
F82.98980712890625
aF80.070640563964844
aF159.95063781738281
aF42.312164306640625
aF8.20721435546875
aa(lp3
F70.626922607421875
aF89.534614562988281
aF61.394062042236328
aF1.8418216705322266
aF15.255119323730469
aa(lp4
F89
aF1.5
aF1
aF4
aF90
aa(lp5
F76.211540222167969
aF17.942306518554688
aF6.0795998573303223
aF0.78446453809738159
aF11.309928894042969
aa.(lp1
(lp2
F72.678985595703125
aF78.641059875488281
aF158.22377014160156
aF20.503952026367188
aF5.8935317993164062
aa(lp3
F95.075233459472656
aF77.541969299316406
aF152.57382202148438
aF23.45074462890625
aF7.352386474609375
aa(lp4
F68.028739929199219
aF102.6458740234375
aF32.277130126953125
aF1.5290918350219727
aF15.422164916992188
aa(lp5
F76.367607116699219
aF71.224929809570312
aF28.860645294189453
aF2.0435490608215332
aF14.534454345703125
aa(lp6
F79.750007629394531
aF6.750004768371582
aF8.4852809906005859
aF0.70710670948028564
aF45
aa(lp7
F77.153472900390625
aF20.965349197387695
aF12.039951324462891
aF0.89553350210189819
aF5.7105941772460938
aa.(lp1
(lp2
F75.968132019042969
aF77.711013793945312
aF159.17924499511719
aF26.881996154785156
aF8.5912246704101562
aa(lp3
F98.087692260742188
aF64.130416870117188
aF123.97196197509766
aF16.499429702758789
aF12.127098083496094
aa(lp4
F65.800003051757812
aF109.10000610351562
aF16.760072708129883
aF0.94868326187133789
aF18.434944152832031
aa(lp5
F76.253105163574219
aF71.2027587890625
aF28.857059478759766
aF2.0797879695892334
aF15.068489074707031
aa(lp6
F77.884605407714844
aF15.923076629638672
aF4.4376015663146973
aF0.83205032348632812
aF33.690071105957031
aa(lp7
F70.341178894042969
aF92.964706420898438
aF12.365036964416504
aF0.86772191524505615
aF12.52880859375
aa(lp8
F77.289993286132812
aF28.029996871948242
aF0.84852820634841919
aF10.04091739654541
aF171.86989784240723
aa.(lp1
(lp2
F72.62677001953125
aF78.13165283203125
aF159.68693542480469
aF26.2401123046875
aF8.3056793212890625
aa(lp3
F94.767578125
aF64.104873657226562
aF123.75798797607422
aF16.842609405517578
aF11.673713684082031
aa(lp4
F63.816215515136719
aF105.5972900390625
aF25.953081130981445
aF1.323386549949646
aF17.102729797363281
aa(lp5
F74.040931701660156
aF68.669036865234375
aF17.717536926269531
aF1.4317200183868408
aF17.354026794433594
aa(lp6
F68.903854370117188
aF85.480766296386719
aF9.2174577713012695
aF0.78446453809738159
aF11.309928894042969
aa(lp7
F74.735298156738281
aF30.441179275512695
aF0.72760689258575439
aF5.0932478904724121
aF165.96375560760498
aa(lp8
F74.211540222167969
aF17.94230842590332
aF6.0795998573303223
aF0.78446453809738159
aF11.309928894042969
aa.(lp1
(lp2
F70.642135620117188
aF79.010169982910156
aF157.52720642089844
aF19.664186477661133
aF4.0856170654296875
aa(lp3
F100.42451477050781
aF63.141677856445312
aF123.46258544921875
aF18.277395248413086
aF8.1980667114257812
aa(lp4
F78.324226379394531
aF138.57015991210938
aF27.018487930297852
aF3.689579963684082
aF2.2025985717773438
aa(lp5
F66.540138244628906
aF108.51460266113281
aF17.685203552246094
aF1.1961007118225098
aF19.983108520507812
aa(lp6
F78.323539733886719
aF66.705894470214844
aF21.585670471191406
aF1.9402846097946167
aF14.036239624023438
aa(lp7
F79.099998474121094
aF122.70000457763672
aF2.2360680103302002
aF0.4472135603427887
aF63.43494987487793
aa(lp8
F78.735298156738281
aF30.441177368164062
aF0.72760689258575439
aF5.0932478904724121
aF165.96375560760498
aa(lp9
F78.603767395019531
aF17.386791229248047
aF7.2801089286804199
aF0.82416325807571411
aF15.945396423339844
aa(lp10
F93
aF1.5
aF1
aF10
aF90
aa.(lp1
(lp2
F84.609329223632812
aF79.798309326171875
aF158.95382690429688
aF43.116462707519531
aF8.0490570068359375
aa(lp3
F74.572616577148438
aF76.648468017578125
aF44.133480072021484
aF2.2945108413696289
aF14.534454345703125
aa(lp4
F66.650001525878906
aF105.55001068115234
aF11.384198188781738
aF0.94868320226669312
aF18.434951782226562
aa(lp5
F63.350006103515625
aF115.45001220703125
aF5.0596437454223633
aF0.94868320226669312
aF18.434951782226562
aa(lp6
F78.5
aF16
aF2
aF1
aF0
aa.(lp1
(lp2
F86.34649658203125
aF79.98736572265625
aF155.43800354003906
aF43.166015625
aF8.285797119140625
aa(lp3
F79.337852478027344
aF138.55349731445312
aF27.058364868164062
aF3.5971238613128662
aF2.2906112670898438
aa(lp4
F68.536582946777344
aF105.67073822021484
aF26.248769760131836
aF1.1694997549057007
aF17.650115966796875
aa(lp5
F78.6422119140625
aF70.192665100097656
aF22.796266555786133
aF1.9156527519226074
aF16.699241638183594
aa(lp6
F79.900009155273438
aF17.30000114440918
aF9.4868335723876953
aF1.2649111747741699
aF18.434951782226562
aa(lp7
F80.750007629394531
aF8.7500009536743164
aF1.4142134189605713
aF0.70710670948028564
aF45
aa(lp8
F73.382362365722656
aF85.970596313476562
aF6.0633902549743652
aF0.72760689258575439
aF14.036239624023438
aa.(lp1
(lp2
F72.13677978515625
aF78.907951354980469
aF157.69790649414062
aF20.621490478515625
aF6.2993545532226562
aa(lp3
F94.957969665527344
aF77.659538269042969
aF152.99630737304688
aF24.432750701904297
aF7.806396484375
aa(lp4
F76.650001525878906
aF70.550003051757812
aF24.033309936523438
aF1.5811388492584229
aF18.434951782226562
aa(lp5
F81.020004272460938
aF6.6399989128112793
aF5
aF1.2000000476837158
aF36.869899749755859
aa(lp6
F78.300003051757812
aF16.399999618530273
aF3.1304950714111328
aF0.89442712068557739
aF26.565048217773438
aa(lp7
F66.763221740722656
aF105.58311462402344
aF25.947483062744141
aF1.4052796363830566
aF17.525566101074219
aa(lp8
F71.617652893066406
aF87.029411315917969
aF6.0633902549743652
aF0.72760689258575439
aF14.036239624023438
aa.(lp1
(lp2
F77.472000122070312
aF77.403999328613281
aF160.19190979003906
aF27.190587997436523
aF10.304847717285156
aa(lp3
F103.62827301025391
aF64.237152099609375
aF123.7940673828125
aF14.640645027160645
aF9.8458251953125
aa(lp4
F80.504776000976562
aF138.685546875
aF27.073972702026367
aF5.0232748985290527
aF4.23638916015625
aa(lp5
F74.624160766601562
aF88.036918640136719
aF56.035518646240234
aF2.1502304077148438
aF16.55706787109375
aa(lp6
F81
aF122.5
aF4
aF1
aF90
aa.(lp1
(lp2
F85.010307312011719
aF79.857139587402344
aF160.95082092285156
aF43.712013244628906
aF8.2127761840820312
aa(lp3
F72.397239685058594
aF86.747528076171875
aF65.252326965332031
aF2.2271556854248047
aF15.422164916992188
aa(lp4
F78.138465881347656
aF22.892311096191406
aF16.124515533447266
aF1.7364861965179443
aF7.1250152587890625
aa(lp5
F79.750007629394531
aF8.7500009536743164
aF1.4142134189605713
aF0.70710670948028564
aF45
aa(lp6
F83.900009155273438
aF4.2999987602233887
aF2.2360680103302002
aF0.4472135603427887
aF63.43494987487793
aa.(lp1
(lp2
F69.304794311523438
aF78.770553588867188
aF156.374267578125
aF23.687463760375977
aF2.1211013793945312
aa(lp3
F95.620689392089844
aF61.551731109619141
aF121.74467468261719
aF29.232009887695312
aF4.7636489868164062
aa(lp4
F77.326927185058594
aF17.365385055541992
aF11.178619384765625
aF1.5689290761947632
aF11.309928894042969
aa(lp5
F79.250007629394531
aF6.250004768371582
aF2.8284268379211426
aF0.70710670948028564
aF45
aa.(lp1
(lp2
F87.864265441894531
aF80.540992736816406
aF159.52424621582031
aF43.654266357421875
aF7.9696121215820312
aa(lp3
F74.896224975585938
aF88.613204956054688
aF61.400165557861328
aF1.7856868505477905
aF15.945396423339844
aa.(lp1
(lp2
F84.768424987792969
aF79.96417236328125
aF160.72877502441406
aF42.810745239257812
aF8.7905426025390625
aa(lp3
F71.839927673339844
aF89.098403930664062
aF60.439720153808594
aF2.0222408771514893
aF16.144340515136719
aa(lp4
F78.149986267089844
aF18.94999885559082
aF8.0610179901123047
aF0.84852820634841919
aF8.1301040649414062
aa(lp5
F81.180000305175781
aF7.7400035858154297
aF5
aF0.60000002384185791
aF53.130104064941406
aa.(lp1
(lp2
F85.05133056640625
aF79.431320190429688
aF160.18551635742188
aF42.716808319091797
aF8.7022247314453125
aa(lp3
F78.248550415039062
aF20.884391784667969
aF14.141319274902344
aF1.6726291179656982
aF8.7461624145507812
aa(lp4
F76.912757873535156
aF72.131340026855469
aF24.992641448974609
aF1.4727034568786621
aF17.650115966796875
aa(lp5
F80.099998474121094
aF8.6999988555908203
aF2.2360680103302002
aF0.4472135603427887
aF63.43494987487793
aa.(lp1
(lp2
F83.058914184570312
aF77.154800415039062
aF156.67347717285156
aF43.546527862548828
aF8.0490570068359375
aa(lp3
F64.450004577636719
aF105.65000915527344
aF19.92234992980957
aF1.2649115324020386
aF18.434951782226562
aa(lp4
F75.160369873046875
aF67.688674926757812
aF27.884195327758789
aF2.060408353805542
aF15.945396423339844
aa(lp5
F76.139350891113281
aF23.03278923034668
aF0.99589318037033081
aF14.033040046691895
aF174.80557107925415
aa(lp6
F68.788459777832031
aF91.057693481445312
aF6.0795998573303223
aF0.78446453809738159
aF11.309928894042969
aa.(lp1
(lp2
F87.348762512207031
aF78.905181884765625
aF158.69491577148438
aF43.146800994873047
aF8.285797119140625
aa.(lp1
(lp2
F86.390350341796875
aF80.6456298828125
aF159.22865295410156
aF43.037124633789062
aF8.3658905029296875
aa(lp3
F73.512710571289062
aF89.141441345214844
aF62.094417572021484
aF1.7950206995010376
aF15.422164916992188
aa(lp4
F81.000007629394531
aF8.5000009536743164
aF3.5355339050292969
aF0.70710670948028564
aF45
aa.(lp1
(lp2
F74.774826049804688
aF78.245147705078125
aF158.65248107910156
aF22.331003189086914
aF7.352386474609375
aa(lp3
F95.614059448242188
aF78.374168395996094
aF154.04045104980469
aF20.800592422485352
aF9.6121139526367188
aa(lp4
F77.230888366699219
aF72.714958190917969
aF25.959299087524414
aF1.8622976541519165
aF16.389541625976562
aa(lp5
F68.689491271972656
aF103.55573272705078
aF24.040571212768555
aF1.1850986480712891
aF16.389541625976562
aa(lp6
F72.200004577636719
aF88.399993896484375
aF3.1622774600982666
aF0.63245546817779541
aF18.434951782226562
aa(lp7
F78.248550415039062
aF21.384389877319336
aF13.152946472167969
aF1.5205720663070679
aF8.7461624145507812
aa.(lp1
(lp2
F86.237472534179688
aF79.392173767089844
aF159.6539306640625
aF43.406505584716797
aF8.0490570068359375
aa(lp3
F77.183486938476562
aF75.5550537109375
aF31.991397857666016
aF1.6283049583435059
aF16.699241638183594
aa(lp4
F82.250007629394531
aF7.2500009536743164
aF7.0710678100585938
aF0.70710670948028564
aF45
aa(lp5
F79.229988098144531
aF21.389993667602539
aF15.132086753845215
aF1.6970564126968384
aF8.1301040649414062
aa(lp6
F68.864791870117188
aF106.10639190673828
aF26.919998168945312
aF1.3199999332427979
aF16.260208129882812
aa.(lp1
(lp2
F86.793746948242188
aF80.095169067382812
aF158.121826171875
aF42.671218872070312
aF7.8917007446289062
aa.(lp1
(lp2
F85.169418334960938
aF79.884864807128906
aF160.62266540527344
aF43.632328033447266
aF7.8917007446289062
aa.(lp1
(lp2
F87.595046997070312
aF79.942802429199219
aF160.64328002929688
aF42.275680541992188
aF8.0429000854492188
aa(lp3
F79.114402770996094
aF71.17919921875
aF26.919998168945312
aF1.8399996757507324
aF16.260208129882812
aa(lp4
F82.750007629394531
aF7.7499971389770508
aF2.8284268379211426
aF0.70710670948028564
aF45
aa(lp5
F92.250007629394531
aF1.7500002384185791
aF0.70710670948028564
aF1.4142134189605713
aF135
aa(lp6
F69.629898071289062
aF105.68663024902344
aF28.160259246826172
aF1.3139086961746216
aF16.504364013671875
aa(lp7
F80.115386962890625
aF30.576923370361328
aF0.78446453809738159
aF5.0990195274353027
aF168.69006729125977
aa.(lp1
(lp2
F79.300003051757812
aF75.400039672851562
aF154.00784301757812
aF43.699195861816406
aF8.1301040649414062
aa.(lp1
(lp2
F90.2685546875
aF79.735809326171875
aF159.45552062988281
aF43.151451110839844
aF7.5946426391601562
aa(lp3
F81.597869873046875
aF72.686836242675781
aF26.248199462890625
aF1.7896499633789062
aF17.354026794433594
aa(lp4
F83.500007629394531
aF16.000005722045898
aF2.1213202476501465
aF0.70710670948028564
aF45
aa(lp5
F73.094329833984375
aF102.66980743408203
aF32.279727935791016
aF1.3736052513122559
aF15.945396423339844
aa.(lp1
(lp2
F71.204025268554688
aF78.6595458984375
aF156.89756774902344
aF23.686820983886719
aF3.6782379150390625
aa(lp3
F95.840988159179688
aF62.957160949707031
aF123.82672119140625
aF25.732767105102539
aF6.546295166015625
aa(lp4
F74.568466186523438
aF75.167198181152344
aF31.038291931152344
aF1.9751639366149902
aF16.389541625976562
aa(lp5
F66.576995849609375
aF105.17562103271484
aF27.202812194824219
aF1.2894296646118164
aF16.927513122558594
aa(lp6
F77.5
aF17
aF2
aF1
aF0
aa(lp7
F76.509994506835938
aF27.069999694824219
aF0.98994958400726318
aF14.142135620117188
aF171.86989784240723
aa.(lp1
(lp2
F39
aF23
aF24
aF44
aF180
aa(lp3
F61.689872741699219
aF131.1953125
aF148.91787719726562
aF25.941450119018555
aF10.929489135742188
aa(lp4
F34.766098022460938
aF126.97910308837891
aF145.95408630371094
aF10.397527694702148
aF5.1104202270507812
aa(lp5
F11.332891464233398
aF82.197608947753906
aF41.562614440917969
aF5.9227995872497559
aF34.508522033691406
aa(lp6
F61.203033447265625
aF148.09500122070312
aF98.010826110839844
aF6.1387934684753418
aF4.5139923095703125
aa(lp7
F17.674921035766602
aF102.39250946044922
aF30.805845260620117
aF5.940432071685791
aF76.865978240966797
aa(lp8
F22.700002670288086
aF57.900009155273438
aF6.7082037925720215
aF1.341640830039978
aF63.43494987487793
aa(lp9
F20.615388870239258
aF97.423065185546875
aF1.1094003915786743
aF4.1602516174316406
aF146.30993270874023
aa(lp10
F34.831855773925781
aF158.52215576171875
aF19.024435043334961
aF0.93126600980758667
aF3.8140792846679688
aa(lp11
F11.356164932250977
aF101.38356018066406
aF12.083045959472656
aF4.1380290985107422
aF65.556045532226562
aa.(lp1
(lp2
F84.762969970703125
aF79.61004638671875
aF159.67465209960938
aF42.8736572265625
aF8.20721435546875
aa.(lp1
(lp2
F85.529144287109375
aF81.004043579101562
aF158.77891540527344
aF43.220424652099609
aF7.8917007446289062
aa.(lp1
(lp2
F38.029788970947266
aF118.99867248535156
aF58.061229705810547
aF146.21171569824219
aF177.43622994422913
aa(lp3
F26.100004196166992
aF184.30001831054688
aF0.4472135603427887
aF2.2360680103302002
aF116.56504821777344
aa(lp4
F21.423076629638672
aF48.115383148193359
aF5.0990195274353027
aF0.78446453809738159
aF78.690067291259766
aa.(lp1
(lp2
F73.037124633789062
aF140.47161865234375
aF34.494728088378906
aF21.344438552856445
aF7.5946426391601562
aa(lp3
F101.65020751953125
aF63.721302032470703
aF123.21950531005859
aF16.658533096313477
aF12.680381774902344
aa(lp4
F73.671539306640625
aF57.916877746582031
aF127.74593353271484
aF24.396930694580078
aF18.289161682128906
aa(lp5
F83.250007629394531
aF7.2500009536743164
aF5.6568536758422852
aF0.70710670948028564
aF45
aa(lp6
F70.698966979980469
aF104.56056213378906
aF25.954978942871094
aF0.99826788902282715
aF16.927513122558594
aa(lp7
F80.5
aF24.5
aF0.84852820634841919
aF13.01076602935791
aF171.86989784240723
aa.(lp1
(lp2
F85.413909912109375
aF79.853797912597656
aF159.008056640625
aF43.892555236816406
aF7.6668014526367188
aa(lp3
F76.93072509765625
aF72.136024475097656
aF24.993902206420898
aF1.4554681777954102
aF17.525566101074219
aa(lp4
F99.250015258789062
aF6.7500004768371582
aF0.70710670948028564
aF4.242640495300293
aF135
aa(lp5
F93.5
aF1.5
aF1
aF13
aF90
aa(lp6
F68.330184936523438
aF103.59434509277344
aF23.763378143310547
aF1.2362451553344727
aF15.945396423339844
aa(lp7
F77.576469421386719
aF19.905879974365234
aF10.195732116699219
aF1.0846524238586426
aF12.52880859375
aa.(lp1
(lp2
F86.496368408203125
aF80.065834045410156
aF160.30996704101562
aF43.6077880859375
aF7.5563430786132812
aa(lp3
F77.02392578125
aF75.007560729980469
aF31.016529083251953
aF1.4554681777954102
aF17.525566101074219
aa(lp4
F102.26922607421875
aF9.1538429260253906
aF0.83205032348632812
aF4.9923019409179688
aF146.3099365234375
aa(lp5
F81.250007629394531
aF7.2500009536743164
aF7.0710678100585938
aF0.70710670948028564
aF45
aa(lp6
F69.264144897460938
aF103.57547760009766
aF23.763374328613281
aF1.098884105682373
aF15.945396423339844
aa(lp7
F78.529411315917969
aF19.382354736328125
aF9.2163534164428711
aF1.212678074836731
aF14.036239624023438
aa(lp8
F64.700004577636719
aF118.10002136230469
aF2.2360680103302002
aF0.4472135603427887
aF26.565048217773438
aa(lp9
F78.788459777832031
aF29.942306518554688
aF0.78446453809738159
aF6.0795998573303223
aF168.69006729125977
aa.(lp1
(lp2
F18.700000762939453
aF36.900001525878906
aF0.4472135603427887
aF2.2360680103302002
aF153.43494987487793
aa(lp3
F21.769231796264648
aF18.346153259277344
aF3.6055512428283691
aF0.55470025539398193
aF33.6900634765625
aa.(lp1
(lp2
F85.322776794433594
aF80.374443054199219
aF159.65245056152344
aF43.34478759765625
aF7.5563430786132812
aa(lp3
F76
aF75
aF31.013401031494141
aF1.4727034568786621
aF17.650115966796875
aa(lp4
F67.864791870117188
aF105.10639953613281
aF26.919998168945312
aF1.3199999332427979
aF16.260208129882812
aa(lp5
F78.500007629394531
aF15.999998092651367
aF2.1213202476501465
aF0.70710670948028564
aF45
aa.(lp1
(lp2
F59.297088623046875
aF125.36418914794922
aF147.71910095214844
aF38.548580169677734
aF17.612586975097656
aa(lp3
F36.959457397460938
aF21.743247985839844
aF32.386600494384766
aF21.53626823425293
aF9.4623260498046875
aa(lp4
F32.558868408203125
aF152.43673706054688
aF38.625431060791016
aF6.7883520126342773
aF11.97613525390625
aa(lp5
F11.95591926574707
aF63.777076721191406
aF24.040321350097656
aF5.7716846466064453
aF72.474431991577148
aa(lp6
F27.5
aF90.5
aF23
aF83
aF180
aa(lp7
F4.4928741455078125
aF82.293350219726562
aF11.745620727539062
aF20.518283843994141
aF133.02506637573242
aa(lp8
F20.900001525878906
aF51.200004577636719
aF4.1109609603881836
aF0.94868320226669312
aF71.565052032470703
aa(lp9
F35.5
aF1.5
aF1
aF21
aF90
aa(lp10
F46.500003814697266
aF4.5000004768371582
aF2.8284268379211426
aF1.4142134189605713
aF45
aa(lp11
F55.100009918212891
aF191.70002746582031
aF2.2360680103302002
aF0.4472135603427887
aF63.43494987487793
aa.(lp1
(lp2
F68.583763122558594
aF78.369514465332031
aF155.20489501953125
aF23.457529067993164
aF1.263671875
aa(lp3
F96.719673156738281
aF63.316390991210938
aF122.249755859375
aF15.860976219177246
aF13.240516662597656
aa(lp4
F78.250007629394531
aF5.250004768371582
aF4.242640495300293
aF0.70710670948028564
aF45
aa(lp5
F100.75001525878906
aF1.7500040531158447
aF1.4142134189605713
aF0.70710670948028564
aF45
aa(lp6
F75.323692321777344
aF19.395950317382812
aF13.152946472167969
aF1.3685147762298584
aF8.7461624145507812
aa(lp7
F91
aF1.5
aF1
aF14
aF90
aa.(lp1
(lp2
F61.125995635986328
aF136.43522644042969
aF9.5578317642211914
aF35.863014221191406
aF158.49856376647949
aa(lp3
F65.772056579589844
aF59.278202056884766
aF115.22105407714844
aF9.0548200607299805
aF6.9810562133789062
aa(lp4
F94.378570556640625
aF61.041728973388672
aF120.07260131835938
aF14.855555534362793
aF12.63336181640625
aa(lp5
F74.564697265625
aF133.65882873535156
aF27.15056037902832
aF5.0619692802429199
aF4.398712158203125
aa(lp6
F62.650001525878906
aF104.05001068115234
aF18.657434463500977
aF1.2649110555648804
aF18.434951782226562
aa(lp7
F70.669807434082031
aF73.905670166015625
aF39.285114288330078
aF1.7856868505477905
aF15.945396423339844
aa(lp8
F86
aF1.5
aF1
aF24
aF90
aa(lp9
F73.175682067871094
aF14.445945739746094
aF7.0691566467285156
aF0.82199496030807495
aF9.4623260498046875
aa.(lp1
(lp2
F83.860107421875
aF80.66839599609375
aF156.89727783203125
aF43.401943206787109
aF7.0578460693359375
aa(lp3
F73.456558227539062
aF78.987785339355469
aF39.017448425292969
aF1.7147221565246582
aF15.708641052246094
aa(lp4
F65.351348876953125
aF109.60810852050781
aF19.924318313598633
aF0.88225775957107544
aF17.102729797363281
aa(lp5
F76.044830322265625
aF21.962070465087891
aF12.041595458984375
aF0.91350036859512329
aF4.7636489868164062
aa(lp6
F78.076919555664062
aF8.6153831481933594
aF4.9923019409179688
aF0.55470019578933716
aF56.309932708740234
aa.(lp1
(lp2
F86.4063720703125
aF79.803031921386719
aF158.74714660644531
aF42.530315399169922
aF7.0457687377929688
aa(lp3
F67.2108154296875
aF109.56486511230469
aF19.924318313598633
aF1.176343560218811
aF17.102729797363281
aa(lp4
F76.582183837890625
aF74.872840881347656
aF29.116159439086914
aF1.372618556022644
aF16.927513122558594
aa(lp5
F95.5
aF1.5
aF11
aF1
aF90
aa(lp6
F71.500007629394531
aF94.500015258789062
aF7.0335330963134766
aF0.72760689258575439
aF14.036239624023438
aa(lp7
F81.000015258789062
aF7.500004768371582
aF3.5777084827423096
aF0.4472135603427887
aF26.565048217773438
aa.(lp1
(lp2
F70.349266052246094
aF78.330253601074219
aF155.48043823242188
aF23.714138031005859
aF2.0901565551757812
aa(lp3
F98.212509155273438
aF63.751766204833984
aF122.97979736328125
aF15.62591552734375
aF9.8458251953125
aa(lp4
F78.250007629394531
aF7.2500009536743164
aF7.0710678100585938
aF0.70710676908493042
aF45
aa(lp5
F74.313163757324219
aF74.597869873046875
aF30.066120147705078
aF1.6703400611877441
aF17.354026794433594
aa(lp6
F64.999992370605469
aF109.50001525878906
aF19.922346115112305
aF0.94868350028991699
aF18.434944152832031
aa(lp7
F93
aF1.5
aF1
aF12
aF90
aa(lp8
F69.115379333496094
aF94.423072814941406
aF5.0990195274353027
aF0.78446453809738159
aF11.309928894042969
aa(lp9
F75.5
aF20.5
aF1
aF7
aF180
aa.(lp1
(lp2
F74.536102294921875
aF78.365203857421875
aF157.17538452148438
aF24.516439437866211
aF4.5574188232421875
aa(lp3
F97.811714172363281
aF64.039138793945312
aF122.80482482910156
aF19.862728118896484
aF9.3855133056640625
aa(lp4
F66.500007629394531
aF110.00000762939453
aF14.862703323364258
aF0.94868320226669312
aF18.434951782226562
aa(lp5
F80.500007629394531
aF6.9999971389770508
aF4.9497470855712891
aF0.70710670948028564
aF45
aa(lp6
F77.674324035644531
aF18.752292633056641
aF10.440306663513184
aF1.7240874767303467
aF16.699241638183594
aa(lp7
F95.75
aF1.7500002384185791
aF1.4142134189605713
aF0.70710670948028564
aF45
aa.(lp1
(lp2
F75.771392822265625
aF77.190711975097656
aF158.18038940429688
aF27.591323852539062
aF8.5307693481445312
aa(lp3
F97.986198425292969
aF64.0467529296875
aF123.55564117431641
aF15.288655281066895
aF11.673713684082031
aa(lp4
F75.05694580078125
aF75.017807006835938
aF31.020599365234375
aF1.4317200183868408
aF17.354026794433594
aa(lp5
F64.849998474121094
aF112.95001220703125
aF12.649109840393066
aF0.94868320226669312
aF18.434951782226562
aa(lp6
F69.264717102050781
aF97.941192626953125
aF12.369317054748535
aF0.9701424241065979
aF14.036239624023438
aa(lp7
F76.211532592773438
aF18.942306518554688
aF6.0795998573303223
aF0.78446453809738159
aF11.309928894042969
aa.(lp1
(lp2
F65.400001525878906
aF137.69999694824219
aF32.6683349609375
aF21.637470245361328
aF8.1301040649414062
aa(lp3
F91.112220764160156
aF61.255619049072266
aF121.14865875244141
aF30.212259292602539
aF2.8624038696289062
aa(lp4
F64.574241638183594
aF60.443241119384766
aF119.14558410644531
aF9.9783611297607422
aF7.5946426391601562
aa(lp5
F62.477512359619141
aF103.64533996582031
aF28.159486770629883
aF1.2062408924102783
aF16.927513122558594
aa(lp6
F74.384613037109375
aF5.4230732917785645
aF4.1602516174316406
aF1.1094005107879639
aF33.6900634765625
aa(lp7
F68.264717102050781
aF79.441177368164062
aF5.0932478904724121
aF0.72760689258575439
aF14.036239624023438
aa(lp8
F72.170730590820312
aF17.463413238525391
aF11.043154716491699
aF0.88345223665237427
aF6.3401870727539062
aa.(lp1
(lp2
F66.84075927734375
aF68.612945556640625
aF148.66563415527344
aF38.092212677001953
aF13.940589904785156
aa(lp3
F88.905166625976562
aF71.100723266601562
aF141.48452758789062
aF10.860295295715332
aF17.500862121582031
aa(lp4
F69.460189819335938
aF58.635349273681641
aF23.758403778076172
aF1.6929976940155029
aF16.389541625976562
aa(lp5
F69.100006103515625
aF155.30001831054688
aF0.4472135603427887
aF2.2360680103302002
aF116.56504821777344
aa(lp6
F59.454135894775391
aF95.986244201660156
aF18.6776123046875
aF0.86204361915588379
aF16.699241638183594
aa(lp7
F63.382358551025391
aF81.970588684082031
aF6.0633902549743652
aF0.72760689258575439
aF14.036239624023438
aa(lp8
F64.852943420410156
aF75.088241577148438
aF4.123105525970459
aF0.72760689258575439
aF14.036239624023438
aa.(lp1
(lp2
F18.505146026611328
aF100.27769470214844
aF34.512607574462891
aF82.004463195800781
aF178.93908834457397
aa(lp3
F61.907958984375
aF131.54768371582031
aF143.01374816894531
aF8.5359525680541992
aF0.69869232177734375
aa(lp4
F24.5
aF187.5
aF13
aF35
aF180
aa(lp5
F40.644119262695312
aF30.126468658447266
aF26.230203628540039
aF5.2920584678649902
aF4.398712158203125
aa(lp6
F44.101032257080078
aF206.72267150878906
aF22.02271842956543
aF4.4499506950378418
aF87.397438049316406
aa(lp7
F19.556606292724609
aF62.801891326904297
aF10.295629501342773
aF3.8851432800292969
aF60.945394515991211
aa(lp8
F57.875556945800781
aF155.66732788085938
aF95.257041931152344
aF6.3083209991455078
aF4.0282669067382812
aa(lp9
F19.500003814697266
aF71.000007629394531
aF0.70710670948028564
aF2.1213202476501465
aF135
aa.(lp1
(lp2
F28.455062866210938
aF170.73550415039062
aF122.11322021484375
aF45.453948974609375
aF0.79572296142578125
aa(lp3
F57.146797180175781
aF47.344039916992188
aF104.21150970458984
aF33.045005798339844
aF16.699241638183594
aa(lp4
F58
aF81
aF4
aF26
aF180
aa(lp5
F50.836551666259766
aF33.321376800537109
aF60.870937347412109
aF2.228344202041626
aF15.068489074707031
aa(lp6
F35.699996948242188
aF113.90000915527344
aF6.7082037925720215
aF1.341640830039978
aF63.43494987487793
aa(lp7
F36.5
aF122.00001525878906
aF0.70710670948028564
aF2.1213202476501465
aF135
aa(lp8
F18.976921081542969
aF157.91537475585938
aF0.94299030303955078
aF20.024677276611328
aF93.179832458496094
aa.(lp1
(lp2
F82.936180114746094
aF78.55401611328125
aF157.8802490234375
aF43.033332824707031
aF7.0578460693359375
aa.(lp1
(lp2
F80.09136962890625
aF76.629310607910156
aF155.58456420898438
aF44.045665740966797
aF7.26324462890625
aa(lp3
F61.650001525878906
aF104.55001068115234
aF17.708751678466797
aF0.94868320226669312
aF18.434951782226562
aa(lp4
F71.763221740722656
aF67.083114624023438
aF24.993902206420898
aF1.2045249938964844
aF17.525566101074219
aa(lp5
F66.081077575683594
aF87.013511657714844
aF12.165525436401367
aF0.8219950795173645
aF9.4623260498046875
aa(lp6
F72.852951049804688
aF25.911767959594727
aF0.72760689258575439
aF4.123105525970459
aF165.96375560760498
aa(lp7
F72.676475524902344
aF14.294116973876953
aF13.339459419250488
aF1.9402849674224854
aF14.036239624023438
aa.(lp1
(lp2
F55.226406097412109
aF46.207546234130859
aF101.09736633300781
aF33.515968322753906
aF15.945396423339844
aa(lp3
F62.598503112792969
aF180.68281555175781
aF148.82083129882812
aF42.480148315429688
aF7.5238189697265625
aa(lp4
F8.5
aF137
aF15
aF36
aF180
aa(lp5
F34.706226348876953
aF131.70039367675781
aF51.212570190429688
aF27.820716857910156
aF3.5763320922851562
aa(lp6
F35.200004577636719
aF117.40001678466797
aF0.89442712068557739
aF3.5777084827423096
aF153.43494987487793
aa(lp7
F34.950004577636719
aF109.35000610351562
aF4.1109609603881836
aF0.63245546817779541
aF71.565052032470703
aa.(lp1
(lp2
F74.045928955078125
aF70.559211730957031
aF145.02421569824219
aF42.8060302734375
aF7.1934738159179688
aa(lp3
F65.000007629394531
aF60.500007629394531
aF30.041637420654297
aF1.5811389684677124
aF18.434951782226562
aa(lp4
F44.707695007324219
aF157.76155090332031
aF8.0622568130493164
aF2.9768331050872803
aF29.744884490966797
aa(lp5
F67.638229370117188
aF123.20294189453125
aF26.076812744140625
aF5.2920584678649902
aF4.398712158203125
aa(lp6
F57.866973876953125
aF88.110099792480469
aF23.083616256713867
aF1.149391770362854
aF16.699241638183594
aa.(lp1
(lp2
F60.540370941162109
aF130.73199462890625
aF149.02241516113281
aF29.202749252319336
aF11.463951110839844
aa(lp3
F33.993362426757812
aF23.400442123413086
aF22.017787933349609
aF39.379249572753906
aF176.18592500686646
aa(lp4
F19
aF126.5
aF36
aF143
aF180
aa(lp5
F13.352940559387207
aF72.588233947753906
aF23.666803359985352
aF8.5749282836914062
aF59.036245346069336
aa.(lp1
(lp2
F79.78533935546875
aF78.839584350585938
aF158.84696960449219
aF42.068622589111328
aF7.5238189697265625
aa(lp3
F73.028305053710938
aF68.65093994140625
aF19.642557144165039
aF1.5109658241271973
aF15.945396423339844
aa(lp4
F64.142036437988281
aF101.16645050048828
aF28.860645294189453
aF1.5774760246276855
aF14.534454345703125
aa(lp5
F78
aF4.5000004768371582
aF2.1213202476501465
aF0.70710670948028564
aF45
aa(lp6
F60.750007629394531
aF119.75001525878906
aF1.4142134189605713
aF0.70710670948028564
aF45
aa(lp7
F68.735298156738281
aF82.558822631835938
aF5.0932478904724121
aF0.72760689258575439
aF14.036239624023438
aa(lp8
F72.499992370605469
aF22.500001907348633
aF0.63245546817779541
aF5.0596437454223633
aF161.56505012512207
aa(lp9
F73.800003051757812
aF14.900001525878906
aF4.4721360206604004
aF0.4472135603427887
aF26.565048217773438
aa(lp10
F94.700004577636719
aF5.9000043869018555
aF0.4472135603427887
aF2.2360680103302002
aF153.43494987487793
aa.(lp1
(lp2
F85.839141845703125
aF78.980293273925781
aF158.73281860351562
aF43.268669128417969
aF6.9810562133789062
aa(lp3
F101.74589538574219
aF8.2950859069824219
aF1.2803689241409302
aF8.5784721374511719
aF140.19443130493164
aa(lp4
F69.233108520507812
aF101.062744140625
aF29.117033004760742
aF1.4484239816665649
aF15.068489074707031
aa(lp5
F78.076011657714844
aF18.331998825073242
aF11.180341720581055
aF1.8782972097396851
aF10.304847717285156
aa(lp6
F73.5
aF82.499992370605469
aF5.0596437454223633
aF0.63245546817779541
aF18.434951782226562
aa(lp7
F77.800003051757812
aF69.600006103515625
aF17.708751678466797
aF1.2649110555648804
aF18.434951782226562
aa(lp8
F78.147064208984375
aF30.088235855102539
aF0.72760689258575439
aF4.123105525970459
aF165.96375560760498
aa.(lp1
(lp2
F78.609359741210938
aF77.661338806152344
aF157.16865539550781
aF25.221118927001953
aF6.4739608764648438
aa(lp3
F101.02023315429688
aF63.478733062744141
aF124.13606262207031
aF19.094722747802734
aF9.8458251953125
aa(lp4
F79.623832702636719
aF72.539405822753906
aF25.945566177368164
aF1.1694997549057007
aF17.650115966796875
aa(lp5
F80.4705810546875
aF18.882350921630859
aF10.195732116699219
aF1.301582932472229
aF12.52880859375
aa(lp6
F71.330184936523438
aF104.09434509277344
aF22.801851272583008
aF0.96152395009994507
aF15.945396423339844
aa.(lp1
(lp2
F70.220726013183594
aF79.409637451171875
aF155.17100524902344
aF23.328521728515625
aF0.8243408203125
aa(lp3
F100.40386962890625
aF64.120674133300781
aF123.62131500244141
aF14.33219051361084
aF9.926239013671875
aa(lp4
F77.163444519042969
aF70.178611755371094
aF28.857059478759766
aF1.8940926790237427
aF15.068489074707031
aa(lp5
F79.75
aF6.7500009536743164
aF8.4852809906005859
aF0.70710670948028564
aF45
aa(lp6
F93.5
aF1.5
aF1
aF17
aF90
aa(lp7
F69.352951049804688
aF100.58824157714844
aF17.462564468383789
aF0.97014230489730835
aF14.036239624023438
aa.(lp1
(lp2
F66.957656860351562
aF72.146018981933594
aF149.38331604003906
aF31.649776458740234
aF10.459907531738281
aa(lp3
F91.181442260742188
aF58.05438232421875
aF115.19548797607422
aF11.328832626342773
aF12.692665100097656
aa(lp4
F70.100006103515625
aF112.70001220703125
aF2.2360680103302002
aF0.4472135603427887
aF63.43494987487793
aa(lp5
F57.784698486328125
aF98.588958740234375
aF17.717536926269531
aF0.89482498168945312
aF17.354026794433594
aa(lp6
F61.788459777832031
aF85.057701110839844
aF6.0795998573303223
aF0.78446453809738159
aF11.309928894042969
aa(lp7
F64.500007629394531
aF71.5
aF5.0596437454223633
aF0.63245546817779541
aF18.434951782226562
aa(lp8
F68.886482238769531
aF58.618919372558594
aF17.718673706054688
aF1.176343560218811
aF17.102729797363281
aa(lp9
F68.500007629394531
aF6.5
aF3.1304950714111328
aF0.4472135603427887
aF26.565048217773438
aa.(lp1
(lp2
F82.984306335449219
aF79.293983459472656
aF159.47537231445312
aF43.050746917724609
aF7.7403411865234375
aa(lp3
F70.390945434570312
aF87.109954833984375
aF60.165683746337891
aF1.835053563117981
aF15.708641052246094
aa(lp4
F75.699996948242188
aF16.399999618530273
aF7.2732377052307129
aF0.94868320226669312
aF18.434951782226562
aa(lp5
F77.250007629394531
aF8.2500009536743164
aF2.8284268379211426
aF0.70710670948028564
aF45
aa.(lp1
(lp2
F54.114654541015625
aF47.016689300537109
aF104.04280853271484
aF32.839584350585938
aF17.744674682617188
aa(lp3
F10.5
aF140.5
aF19
aF43
aF180
aa(lp4
F4.5823593139648438
aF152.42941284179688
aF9.8703365325927734
aF20.499929428100586
aF139.39870452880859
aa(lp5
F43.390407562255859
aF50.958904266357422
aF16.736885070800781
aF1.1704114675521851
aF20.556045532226562
aa(lp6
F1.5
aF132
aF1
aF16
aF180
aa(lp7
F33.950000762939453
aF112.35000610351562
aF4.1109609603881836
aF0.63245546817779541
aF71.565052032470703
aa(lp8
F47.264705657958984
aF37.441177368164062
aF5.0932478904724121
aF0.72760689258575439
aF14.036239624023438
aa.(lp1
(lp2
F71.30096435546875
aF78.29351806640625
aF155.4052734375
aF23.853912353515625
aF2.0750350952148438
aa(lp3
F98.005599975585938
aF64.062957763671875
aF122.97979736328125
aF19.265720367431641
aF9.8458251953125
aa(lp4
F84.846153259277344
aF7.2692270278930664
aF4.9923019409179688
aF0.83205032348632812
aF56.309932708740234
aa(lp5
F66.626701354980469
aF108.04525756835938
aF16.749551773071289
aF0.94174182415008545
aF19.653823852539062
aa(lp6
F74.791748046875
aF77.939544677734375
aF41.201950073242188
aF1.9826502799987793
aF16.189201354980469
aa(lp7
F96.75
aF1.7500002384185791
aF1.4142134189605713
aF0.70710670948028564
aF45
aa(lp8
F77.500007629394531
aF28.500005722045898
aF0.44721353054046631
aF3.1304950714111328
aF153.43494987487793
aa(lp9
F77.700004577636719
aF16.100002288818359
aF2.2360680103302002
aF0.4472135603427887
aF26.565048217773438
aa(lp10
F91
aF1.5
aF1
aF6
aF90
aa.(lp1
(lp2
F74.17791748046875
aF73.132255554199219
aF149.94711303710938
aF42.386917114257812
aF7.8152847290039062
aa(lp3
F56.650005340576172
aF96.550003051757812
aF15.811387062072754
aF0.94868320226669312
aF18.434951782226562
aa(lp4
F66.660385131835938
aF59.688682556152344
aF23.763378143310547
aF1.9230479001998901
aF15.945396423339844
aa(lp5
F60.382354736328125
aF83.970588684082031
aF6.0633902549743652
aF0.72760689258575439
aF14.036239624023438
aa(lp6
F61.884616851806641
aF75.576919555664062
aF5.0990195274353027
aF0.78446453809738159
aF11.309928894042969
aa(lp7
F67.617652893066406
aF17.970590591430664
aF0.72760689258575439
aF6.0633902549743652
aF165.96375560760498
aa(lp8
F67.06097412109375
aF8.4512195587158203
aF9.0553855895996094
aF0.88345223665237427
aF6.3401870727539062
aa.(lp1
(lp2
F76.351394653320312
aF74.786346435546875
aF152.66900634765625
aF43.083122253417969
aF7.8917007446289062
aa.(lp1
(lp2
F34.721927642822266
aF150.63679504394531
aF43.014900207519531
aF150.05696105957031
aF172.03824901580811
aa(lp3
F38.490829467773438
aF33.302757263183594
aF20.880613327026367
aF63.312324523925781
aF163.30075645446777
aa(lp4
F72.5
aF146.5
aF9
aF143
aF180
aa(lp5
F29.30000114440918
aF85.599998474121094
aF0.89442712068557739
aF3.1304950714111328
aF153.43494987487793
aa(lp6
F38.150001525878906
aF16.050004959106445
aF17.076297760009766
aF0.94868332147598267
aF18.434951782226562
aa(lp7
F29
aF81
aF8
aF4
aF0
aa(lp8
F68.523101806640625
aF170.07208251953125
aF93.978530883789062
aF5.6620335578918457
aF4.0282669067382812
aa(lp9
F23.500003814697266
aF118.5
aF5.0596437454223633
aF0.63245546817779541
aF18.434951782226562
aa.(lp1
(lp2
F69.583656311035156
aF75.206451416015625
aF155.22567749023438
aF26.882551193237305
aF9.7696990966796875
aa(lp3
F93.530426025390625
aF62.118671417236328
aF120.78102111816406
aF14.426690101623535
aF13.92095947265625
aa(lp4
F70.05694580078125
aF71.517799377441406
aF31.975080490112305
aF1.7299950122833252
aF17.354026794433594
aa(lp5
F72.823478698730469
aF134.08938598632812
aF26.01922607421875
aF4.6504082679748535
aF2.2025985717773438
aa(lp6
F62.045871734619141
aF101.51377105712891
aF26.244441986083984
aF1.149391770362854
aF16.699241638183594
aa(lp7
F98.750015258789062
aF1.7500040531158447
aF1.4142134189605713
aF0.70710670948028564
aF45
aa(lp8
F72.884613037109375
aF26.423076629638672
aF0.78446453809738159
aF5.0990195274353027
aF168.69006729125977
aa(lp9
F72.499992370605469
aF13.499999046325684
aF5.0596437454223633
aF0.63245546817779541
aF18.434951782226562
aa.(lp1
(lp2
F39.626968383789062
aF34.583148956298828
aF20.478765487670898
aF65.370872497558594
aF174.55966806411743
aa(lp3
F71.5
aF150
aF9
aF144
aF180
aa(lp4
F19.5
aF109
aF5
aF2
aF90
aa(lp5
F24
aF152
aF40
aF148
aF180
aa(lp6
F16.616889953613281
aF94.88140869140625
aF27.636133193969727
aF12.062408447265625
aF51.709835052490234
aa(lp7
F67.402366638183594
aF173.66571044921875
aF95.187690734863281
aF5.7105731964111328
aF3.9451828002929688
aa(lp8
F27.000005722045898
aF81.000007629394531
aF8.4852809906005859
aF2.8284268379211426
aF45
aa(lp9
F38.412849426269531
aF14.623855590820312
aF21.838441848754883
aF1.149391770362854
aF16.699241638183594
aa.(lp1
(lp2
F71.57135009765625
aF77.925796508789062
aF158.21260070800781
aF21.813610076904297
aF7.715667724609375
aa(lp3
F95.359130859375
aF64.088943481445312
aF123.35329437255859
aF18.000017166137695
aF10.762542724609375
aa(lp4
F74.813011169433594
aF138.54862976074219
aF27.092535018920898
aF4.6264572143554688
aF2.1211013793945312
aa(lp5
F72.800003051757812
aF75.100006103515625
aF29.409183502197266
aF1.5811388492584229
aF18.434951782226562
aa(lp6
F64.137619018554688
aF106.04129028320312
aF27.202266693115234
aF1.0536091327667236
aF16.699241638183594
aa(lp7
F75.108108520507812
aF19.351348876953125
aF13.151919364929199
aF1.9727878570556641
aF9.4623260498046875
aa(lp8
F76.750007629394531
aF8.7500009536743164
aF1.4142134189605713
aF0.70710670948028564
aF45
aa(lp9
F95.75
aF1.7500002384185791
aF1.4142134189605713
aF0.70710670948028564
aF45
aa(lp10
F75.300003051757812
aF32.100009918212891
aF0.4472135603427887
aF2.2360680103302002
aF153.43494987487793
aa.(lp1
(lp2
F86.516189575195312
aF79.073577880859375
aF154.93592834472656
aF26.283058166503906
aF19.59228515625
aa(lp3
F66.134620666503906
aF60.826927185058594
aF122.37645721435547
aF11.963083267211914
aF11.309928894042969
aa(lp4
F79.2176513671875
aF6.6705865859985352
aF9.2195453643798828
aF0.8677220344543457
aF49.398700714111328
aa(lp5
F64.5972900390625
aF105.18378448486328
aF27.202943801879883
aF1.2498651742935181
aF17.102729797363281
aa(lp6
F73.02392578125
aF75.007553100585938
aF31.016529083251953
aF1.4554681777954102
aF17.525566101074219
aa(lp7
F92
aF1.5
aF1
aF12
aF90
aa(lp8
F75.208000183105469
aF20.355998992919922
aF11.180341720581055
aF1.6099691390991211
aF10.304847717285156
aa.(lp1
(lp2
F65.901641845703125
aF78.550102233886719
aF154.4991455078125
aF19.09813117980957
aF3.3885574340820312
aa(lp3
F91.931655883789062
aF75.93402099609375
aF150.64605712890625
aF30.747068405151367
aF4.1849136352539062
aa(lp4
F74.943397521972656
aF17.698114395141602
aF14.56021785736084
aF2.1977689266204834
aF15.945396423339844
aa(lp5
F96.750007629394531
aF5.2500004768371582
aF0.70710670948028564
aF2.8284268379211426
aF135
aa(lp6
F77.000007629394531
aF6.5000009536743164
aF6.3639612197875977
aF0.70710670948028564
aF45
aa.(lp1
(lp2
F62.941177368164062
aF50.235301971435547
aF108.17089080810547
aF34.440059661865234
aF14.036239624023438
aa(lp3
F59.455520629882812
aF23.14234733581543
aF27.202680587768555
aF1.7896499633789062
aF17.354026794433594
aa(lp4
F38.317066192626953
aF163.64633178710938
aF1.2493901252746582
aF7.0278196334838867
aF141.34019088745117
aa(lp5
F50.479999542236328
aF54.639999389648438
aF30.079998016357422
aF1.4399995803833008
aF16.260208129882812
aa(lp6
F81.5
aF131
aF3
aF16
aF180
aa(lp7
F36.838233947753906
aF121.39705657958984
aF5.8309516906738281
aF2.5724787712097168
aF59.036245346069336
aa(lp8
F77.637924194335938
aF119.65517425537109
aF0.74278146028518677
aF5.385164737701416
aF111.80140686035156
aa.(lp1
(lp2
F81.984550476074219
aF77.49774169921875
aF155.44743347167969
aF42.228130340576172
aF8.3832473754882812
aa(lp3
F74.578445434570312
aF135.69099426269531
aF27.073972702026367
aF5.1710186004638672
aF4.23638916015625
aa(lp4
F65.050468444824219
aF99.665138244628906
aF32.27874755859375
aF1.436739444732666
aF16.699241638183594
aa(lp5
F74.949996948242188
aF66.150001525878906
aF16.760068893432617
aF1.2649110555648804
aF18.434944152832031
aa(lp6
F78.000007629394531
aF4.9999985694885254
aF2.683281421661377
aF0.89442712068557739
aF26.565048217773438
aa(lp7
F98.750015258789062
aF6.2500004768371582
aF0.70710670948028564
aF2.8284268379211426
aF135
aa(lp8
F70.382362365722656
aF78.970588684082031
aF6.0633902549743652
aF0.72760689258575439
aF14.036239624023438
aa(lp9
F75.383995056152344
aF16.887998580932617
aF12.164211273193359
aF1.4310837984085083
aF10.304847717285156
aa.(lp1
(lp2
F85.312210083007812
aF79.109329223632812
aF159.008056640625
aF42.958667755126953
aF7.6668014526367188
aa(lp3
F70.756378173828125
aF89.9283447265625
aF56.320392608642578
aF2.0880308151245117
aF16.389541625976562
aa(lp4
F79.250007629394531
aF9.250004768371582
aF5.6568536758422852
aF0.70710670948028564
aF45
aa(lp5
F77.256752014160156
aF19.95945930480957
aF8.0555505752563477
aF0.82199496030807495
aF9.4623260498046875
aa.(lp1
(lp2
F82.353713989257812
aF75.847183227539062
aF153.83856201171875
aF43.614025115966797
aF7.5946426391601562
aa(lp3
F68.458724975585938
aF83.637619018554688
aF59.19366455078125
aF2.0114352703094482
aF16.699241638183594
aa(lp4
F75.700004577636719
aF12.100000381469727
aF2.2360680103302002
aF0.4472135603427887
aF26.565048217773438
aa.(lp1
(lp2
F72.418045043945312
aF78.901641845703125
aF156.17416381835938
aF19.10304069519043
aF5.194427490234375
aa(lp3
F98.165481567382812
aF62.870079040527344
aF123.85620880126953
aF27.361495971679688
aF6.0823287963867188
aa(lp4
F78.277374267578125
aF138.76277160644531
aF27.280540466308594
aF5.4637489318847656
aF6.5819473266601562
aa(lp5
F103.24391174316406
aF9.3048744201660156
aF0.93704259395599365
aF9.2142524719238281
aF141.34019088745117
aa(lp6
F79.115859985351562
aF20.957317352294922
aF10.049270629882812
aF0.88345223665237427
aF6.3401870727539062
aa.(lp1
(lp2
F85.170616149902344
aF79.028129577636719
aF159.45361328125
aF42.904773712158203
aF9.3665084838867188
aa.(lp1
(lp2
F99.844001770019531
aF63.607994079589844
aF124.32540130615234
aF19.766843795776367
aF10.304847717285156
aa(lp3
F75.9471435546875
aF78.589157104492188
aF158.45098876953125
aF21.968589782714844
aF8.8579635620117188
aa(lp4
F78.859756469726562
aF138.76220703125
aF27.166156768798828
aF4.7485556602478027
aF6.3401870727539062
aa(lp5
F77.93072509765625
aF72.636016845703125
aF25.947483062744141
aF1.7565995454788208
aF17.525566101074219
aa(lp6
F69.597297668457031
aF101.18377685546875
aF27.202943801879883
aF1.2498651742935181
aF17.102729797363281
aa(lp7
F83.750007629394531
aF6.7499971389770508
aF5.6568536758422852
aF0.70710670948028564
aF45
aa(lp8
F79.307685852050781
aF21.461538314819336
aF7.0601806640625
aF0.78446453809738159
aF11.309928894042969
aa.(lp1
(lp2
F86.54443359375
aF79.006736755371094
aF159.18321228027344
aF43.383636474609375
aF8.6156463623046875
aa(lp3
F73.6422119140625
aF88.692665100097656
aF61.684017181396484
aF2.0114352703094482
aF16.699241638183594
aa(lp4
F103.00001525878906
aF8.5
aF0.70710670948028564
aF9.1923885345458984
aF135
aa(lp5
F84.260002136230469
aF6.6800045967102051
aF6.4000000953674316
aF1
aF53.130104064941406
aa(lp6
F80.613845825195312
aF23.450767517089844
aF19.026216506958008
aF1.8305106163024902
aF3.1798324584960938
aa.(lp1
(lp2
F72.868850708007812
aF78.442626953125
aF156.98895263671875
aF20.280006408691406
aF5.194427490234375
aa(lp3
F101.02496337890625
aF62.497509002685547
aF122.98770141601562
aF25.992841720581055
aF3.7826461791992188
aa(lp4
F79.669319152832031
aF137.633544921875
aF29.067136764526367
aF5.1834397315979004
aF4.5739212036132812
aa(lp5
F77.8095703125
aF74.598495483398438
aF32.26953125
aF1.4727034568786621
aF17.650115966796875
aa(lp6
F86.000007629394531
aF10.499997138977051
aF2.1213202476501465
aF0.70710670948028564
aF45
aa(lp7
F81.750007629394531
aF9.7500009536743164
aF4.242640495300293
aF0.70710670948028564
aF45
aa(lp8
F86.250007629394531
aF5.2500009536743164
aF4.242640495300293
aF0.70710670948028564
aF45
aa(lp9
F69.284690856933594
aF104.58897399902344
aF26.248199462890625
aF1.133445143699646
aF17.354026794433594
aa(lp10
F80.130783081054688
aF20.453849792480469
aF9.0545358657836914
aF0.86824309825897217
aF7.1250152587890625
aa.(lp1
(lp2
F71.592269897460938
aF79.154617309570312
aF155.65554809570312
aF23.07118034362793
aF2.8624038696289062
aa(lp3
F96.903778076171875
aF62.728240966796875
aF123.86128234863281
aF27.816583633422852
aF5.617584228515625
aa(lp4
F66.350006103515625
aF108.45000457763672
aF17.708751678466797
aF0.94868320226669312
aF18.434951782226562
aa(lp5
F76
aF75
aF31.013401031494141
aF1.4727034568786621
aF17.650115966796875
aa(lp6
F86.250007629394531
aF8.2500009536743164
aF1.4142134189605713
aF0.70710670948028564
aF45
aa(lp7
F70.617645263671875
aF95.029426574707031
aF6.0633902549743652
aF0.72760689258575439
aF14.036239624023438
aa(lp8
F78.086219787597656
aF22.465517044067383
aF13.038141250610352
aF0.91350036859512329
aF4.7636489868164062
aa(lp9
F83.304878234863281
aF5.7560939788818359
aF6.4031243324279785
aF0.6246950626373291
aF51.340190887451172
aa.(lp1
(lp2
F86.239669799804688
aF61.554325103759766
aF124.38691711425781
aF43.579132080078125
aF8.285797119140625
aa(lp3
F62.350006103515625
aF138.55000305175781
aF9.1706037521362305
aF37.314872741699219
aF161.56505012512207
aa(lp4
F70.400634765625
aF87.615966796875
aF61.122226715087891
aF2.0222408771514893
aF16.144340515136719
aa(lp5
F76.489662170410156
aF137.6241455078125
aF27.238918304443359
aF4.899683952331543
aF4.7636489868164062
aa(lp6
F79.250007629394531
aF7.2499971389770508
aF2.8284268379211426
aF0.70710670948028564
aF45
aa(lp7
F76.650001525878906
aF22.950000762939453
aF18.027660369873047
aF1.7616608142852783
aF3.366455078125
aa.(lp1
(lp2
F87.35162353515625
aF79.316566467285156
aF158.07418823242188
aF43.625728607177734
aF7.6668014526367188
aa(lp3
F79.028900146484375
aF138.31211853027344
aF26.610008239746094
aF6.0822882652282715
aF8.7461624145507812
aa(lp4
F73.633872985839844
aF88.538856506347656
aF61.400199890136719
aF1.8897135257720947
aF16.189201354980469
aa(lp5
F82.250007629394531
aF8.2500009536743164
aF4.242640495300293
aF0.70710670948028564
aF45
aa(lp6
F80.149986267089844
aF19.44999885559082
aF9.0509672164916992
aF0.98994958400726318
aF8.1301040649414062
aa.(lp1
(lp2
F75.684310913085938
aF78.509063720703125
aF156.87710571289062
aF19.644416809082031
aF4.8252182006835938
aa(lp3
F102.39344787597656
aF62.672138214111328
aF123.49074554443359
aF27.885005950927734
aF5.194427490234375
aa(lp4
F82.496505737304688
aF139.775390625
aF29.41120719909668
aF5.0214252471923828
aF7.8533172607421875
aa(lp5
F81.292442321777344
aF73.726409912109375
aF34.202774047851562
aF2.0604081153869629
aF15.945396423339844
aa(lp6
F72.515945434570312
aF104.66417694091797
aF26.248769760131836
aF1.1261851787567139
aF17.650115966796875
aa(lp7
F83.229995727539062
aF21.389993667602539
aF15.132086753845215
aF1.6970564126968384
aF8.1301040649414062
aa(lp8
F88.207328796386719
aF5.6341490745544434
aF6.4031243324279785
aF0.93704259395599365
aF51.340190887451172
aa.(lp1
(lp2
F70.620147705078125
aF57.330352783203125
aF128.15940856933594
aF22.176801681518555
aF20.376434326171875
aa(lp3
F64.656929016113281
aF139.30656433105469
aF9.3979339599609375
aF39.471324920654297
aF160.01689338684082
aa(lp4
F101.50644683837891
aF63.601203918457031
aF122.80326843261719
aF15.344261169433594
aF10.388862609863281
aa(lp5
F78.561767578125
aF138.19705200195312
aF26.076812744140625
aF5.1386661529541016
aF4.398712158203125
aa(lp6
F68.371490478515625
aF105.11820983886719
aF27.201696395874023
aF1.1261851787567139
aF17.650115966796875
aa(lp7
F80.500015258789062
aF15.500000953674316
aF3.1304950714111328
aF0.4472135603427887
aF26.565048217773438
aa(lp8
F81.260002136230469
aF8.8199996948242188
aF5
aF0.60000002384185791
aF36.869899749755859
aa.(lp1
(lp2
F73.837249755859375
aF78.702873229980469
aF156.77651977539062
aF23.457584381103516
aF3.2939605712890625
aa(lp3
F101.04232025146484
aF62.486625671386719
aF123.22159576416016
aF27.156389236450195
aF4.2538375854492188
aa(lp4
F85.3360595703125
aF6.3032760620117188
aF8.5784721374511719
aF1.1523318290710449
aF50.194431304931641
aa(lp5
F103.25001525878906
aF7.7500009536743164
aF0.70710670948028564
aF1.4142134189605713
aF135
aa(lp6
F81.069236755371094
aF18.946155548095703
aF8.0622577667236328
aF0.86824309825897217
aF7.1250152587890625
aa.(lp1
(lp2
F45.642906188964844
aF29.398361206054688
aF68.692779541015625
aF30.056480407714844
aF20.071525573730469
aa(lp3
F54.735958099365234
aF148.9959716796875
aF150.12406921386719
aF42.643806457519531
aF4.60009765625
aa(lp4
F27.346155166625977
aF77.73077392578125
aF5.0990195274353027
aF1.5689290761947632
aF78.690067291259766
aa(lp5
F41.051109313964844
aF177.52900695800781
aF23.020771026611328
aF1.3139708042144775
aF3.012786865234375
aa(lp6
F29.300003051757812
aF87.100006103515625
aF0.4472135603427887
aF2.2360680103302002
aF153.43494987487793
aa(lp7
F55.441177368164062
aF76.735305786132812
aF0.72760689258575439
aF5.0932478904724121
aF104.03623962402344
aa.(lp1
(lp2
F87.6099853515625
aF78.937599182128906
aF159.41241455078125
aF42.499446868896484
aF9.0902786254882812
aa.(lp1
(lp2
F67.5
aF137.5
aF37
aF21
aF0
aa(lp3
F96.195220947265625
aF61.211528778076172
aF120.95558929443359
aF28.426074981689453
aF2.8864212036132812
aa(lp4
F68.083274841308594
aF60.014293670654297
aF120.69647979736328
aF9.799901008605957
aF9.7275772094726562
aa(lp5
F69.7607421875
aF86.077522277832031
aF60.439601898193359
aF1.865260124206543
aF16.55706787109375
aa(lp6
F76.586151123046875
aF21.949230194091797
aF18.027755737304688
aF1.8305106163024902
aF3.1798324584960938
aa(lp7
F77.250007629394531
aF8.2500009536743164
aF2.8284268379211426
aF0.70710670948028564
aF45
aa.(lp1
(lp2
F89.508079528808594
aF75.605224609375
aF152.5335693359375
aF43.360286712646484
aF9.0017547607421875
aa(lp3
F67.473800659179688
aF139.69650268554688
aF9.3682079315185547
aF38.270748138427734
aF161.02959251403809
aa(lp4
F87.260002136230469
aF6.1800003051757812
aF8.6000003814697266
aF1
aF53.130104064941406
aa(lp5
F80.044761657714844
aF73.661407470703125
aF34.197135925292969
aF1.8820853233337402
aF16.504364013671875
aa(lp6
F71.150001525878906
aF104.55000305175781
aF26.246904373168945
aF1.2649111747741699
aF18.434951782226562
aa(lp7
F82.617652893066406
aF28.970592498779297
aF0.72760689258575439
aF6.0633902549743652
aF165.96375560760498
aa(lp8
F82.175674438476562
aF20.445945739746094
aF7.0691566467285156
aF0.82199496030807495
aF9.4623260498046875
aa.(lp1
(lp2
F81.863494873046875
aF78.978157043457031
aF159.41241455078125
aF43.644878387451172
aF9.0902786254882812
aa(lp3
F69.044769287109375
aF87.161392211914062
aF62.357398986816406
aF1.8820853233337402
aF16.504356384277344
aa(lp4
F80.500007629394531
aF5.9999971389770508
aF6.3639612197875977
aF0.70710670948028564
aF45
aa(lp5
F75.576461791992188
aF19.905881881713867
aF10.195732116699219
aF1.0846524238586426
aF12.52880859375
aa.(lp1
(lp2
F70.997940063476562
aF77.526168823242188
aF154.78155517578125
aF20.016664505004883
aF4.5139923095703125
aa(lp3
F96.72503662109375
aF76.784843444824219
aF150.62754821777344
aF15.760018348693848
aF13.815025329589844
aa(lp4
F81.750007629394531
aF6.7500009536743164
aF8.4852809906005859
aF0.70710659027099609
aF45
aa(lp5
F97
aF1.5
aF1
aF16
aF90
aa(lp6
F79.470588684082031
aF18.382352828979492
aF9.2195444107055664
aF1.0846524238586426
aF12.52880859375
aa.(lp1
(lp2
F81.863494873046875
aF78.978157043457031
aF159.41241455078125
aF43.644878387451172
aF9.0902786254882812
aa.(lp1
(lp2
F76.712532043457031
aF76.411376953125
aF157.19064331054688
aF24.758821487426758
aF9.7066497802734375
aa(lp3
F100.19020843505859
aF63.398708343505859
aF122.02066802978516
aF18.767358779907227
aF12.324722290039062
aa(lp4
F78.824966430664062
aF136.55096435546875
aF27.095352172851562
aF4.6119747161865234
aF2.2025985717773438
aa(lp5
F73.874687194824219
aF86.113548278808594
aF62.351589202880859
aF1.9720504283905029
aF16.8583984375
aa.(lp1
(lp2
F32.945030212402344
aF72.545265197753906
aF145.23651123046875
aF41.788311004638672
aF3.23101806640625
aa(lp3
F5.4763278961181641
aF26.762701034545898
aF12.301259994506836
aF31.908515930175781
aF170.2175931930542
aa(lp4
F9.2999992370605469
aF2.0999999046325684
aF9.2195444107055664
aF1.8439091444015503
aF77.47119140625
aa(lp5
F11.500000953674316
aF19.500001907348633
aF2.8284268379211426
aF1.4142134189605713
aF45
aa.(lp1
(lp2
F71.893600463867188
aF76.129058837890625
aF155.52687072753906
aF26.759727478027344
aF9.5988998413085938
aa(lp3
F94.472465515136719
aF62.695430755615234
aF123.2210693359375
aF16.078725814819336
aF12.783454895019531
aa(lp4
F60.100002288818359
aF109.30001831054688
aF7.6026301383972168
aF1.3416407108306885
aF26.565048217773438
aa(lp5
F73.550376892089844
aF65.173812866210938
aF20.878440856933594
aF1.4554681777954102
aF17.525566101074219
aa(lp6
F99.000015258789062
aF7.4999971389770508
aF0.70710670948028564
aF3.5355339050292969
aF135
aa(lp7
F74.538459777832031
aF18.307693481445312
aF15.297057151794434
aF1.9611612558364868
aF11.309928894042969
aa(lp8
F77.500007629394531
aF5.0000009536743164
aF3.5355339050292969
aF0.70710670948028564
aF45
aa(lp9
F64.669227600097656
aF96.546150207519531
aF13.331280708312988
aF0.87705785036087036
aF15.255119323730469
aa(lp10
F68.617652893066406
aF80.0294189453125
aF6.0633902549743652
aF0.72760689258575439
aF14.036239624023438
aa.(lp1
(lp2
F65.894569396972656
aF78.046714782714844
aF153.50242614746094
aF19.111778259277344
aF3.41094970703125
aa(lp3
F97.634193420410156
aF62.438827514648438
aF122.57400512695312
aF15.338224411010742
aF11.402488708496094
aa(lp4
F63.190052032470703
aF106.56788635253906
aF18.027629852294922
aF1.0090091228485107
aF19.653823852539062
aa(lp5
F78.750007629394531
aF5.250004768371582
aF4.9497470855712891
aF1.4142134189605713
aF45
aa(lp6
F73.318344116210938
aF71.596885681152344
aF30.072834014892578
aF1.4558080434799194
aF16.927513122558594
aa(lp7
F74.620735168457031
aF134.62005615234375
aF29.216253280639648
aF5.0971465110778809
aF4.23638916015625
aa(lp8
F76.5
aF14.500000953674316
aF3.1304950714111328
aF0.4472135603427887
aF26.565048217773438
aa(lp9
F91
aF1.5
aF1
aF18
aF90
aa.(lp1
(lp2
F72.776649475097656
aF76.91754150390625
aF156.15275573730469
aF25.41094970703125
aF7.0735397338867188
aa(lp3
F96.16448974609375
aF62.708625793457031
aF122.36602020263672
aF20.610940933227539
aF10.561012268066406
aa(lp4
F69.810394287109375
aF85.592292785644531
aF61.398136138916016
aF2.0466046333312988
aF16.55706787109375
aa(lp5
F78.000007629394531
aF13.000000953674316
aF4.4721360206604004
aF0.89442712068557739
aF26.565048217773438
aa(lp6
F78.750007629394531
aF5.750004768371582
aF2.8284268379211426
aF0.70710670948028564
aF45
aa.(lp1
(lp2
F86.196083068847656
aF78.955223083496094
aF159.14434814453125
aF43.883934020996094
aF8.3832473754882812
aa(lp3
F75.850013732910156
aF74.950004577636719
aF31.622774124145508
aF1.5811386108398438
aF18.434951782226562
aa(lp4
F66.300003051757812
aF108.59999847412109
aF18.024978637695312
aF0.94868350028991699
aF18.434951782226562
aa(lp5
F70.617645263671875
aF95.029426574707031
aF6.0633902549743652
aF0.72760689258575439
aF14.036239624023438
aa(lp6
F79.130775451660156
aF20.453849792480469
aF9.0545358657836914
aF0.86824309825897217
aF7.1250152587890625
aa.(lp1
(lp2
F73.438674926757812
aF78.175254821777344
aF155.78570556640625
aF24.185081481933594
aF3.3419418334960938
aa(lp3
F100.45274353027344
aF64.311767578125
aF123.35465240478516
aF20.419975280761719
aF10.850105285644531
aa(lp4
F79.074302673339844
aF71.181365966796875
aF24.993902206420898
aF1.7565995454788208
aF17.525566101074219
aa(lp5
F69.082565307617188
aF105.02628326416016
aF25.295846939086914
aF1.1261851787567139
aF17.650115966796875
aa(lp6
F84.000007629394531
aF7.0000009536743164
aF9.8994951248168945
aF1.4142134189605713
aF45
aa(lp7
F81.600006103515625
aF15.800002098083496
aF4.4721360206604004
aF0.89442712068557739
aF26.565048217773438
aa(lp8
F98.650016784667969
aF1.9500002861022949
aF3.1622774600982666
aF0.94868320226669312
aF71.565052032470703
aa.(lp1
(lp2
F62.510948181152344
aF127.40511322021484
aF9.7396774291992188
aF37.677169799804688
aF160.01689529418945
aa(lp3
F98.861167907714844
aF58.060935974121094
aF114.78716278076172
aF11.163381576538086
aF17.8018798828125
aa(lp4
F68.2413330078125
aF47.937297821044922
aF120.30295562744141
aF32.267818450927734
aF26.350467681884766
aa(lp5
F76.561767578125
aF126.19704437255859
aF26.076812744140625
aF5.1386661529541016
aF4.398712158203125
aa(lp6
F66.45001220703125
aF92.650001525878906
aF26.246902465820312
aF1.2649109363555908
aF18.434951782226562
aa(lp7
F77.903846740722656
aF7.480769157409668
aF7.2562966346740723
aF0.78446453809738159
aF11.309928894042969
aa.(lp1
(lp2
F80.100006103515625
aF77.199996948242188
aF159.56581115722656
aF26.02783203125
aF10.304847717285156
aa(lp3
F105.89199829101562
aF64.343994140625
aF124.14650726318359
aF16.189132690429688
aF10.304847717285156
aa(lp4
F82.257057189941406
aF139.6817626953125
aF29.360557556152344
aF5.522254467010498
aF5.9061508178710938
aa(lp5
F81.180961608886719
aF74.201766967773438
aF33.238334655761719
aF1.8820853233337402
aF16.504356384277344
aa(lp6
F72.252120971679688
aF104.58769989013672
aF26.240585327148438
aF1.1908872127532959
aF19.179000854492188
aa(lp7
F89.25
aF5.2500009536743164
aF4.242640495300293
aF0.70710670948028564
aF45
aa(lp8
F83.470596313476562
aF19.882352828979492
aF10.195732116699219
aF1.301582932472229
aF12.52880859375
aa(lp9
F83.884613037109375
aF30.423078536987305
aF0.78446453809738159
aF5.0990195274353027
aF168.69006729125977
aa.(lp1
(lp2
F83.780532836914062
aF69.197891235351562
aF143.23368835449219
aF43.047359466552734
aF9.0017547607421875
aa(lp3
F62.671531677246094
aF127.84671783447266
aF9.7396774291992188
aF38.616966247558594
aF160.01689529418945
aa(lp4
F71.243629455566406
aF74.5716552734375
aF57.279762268066406
aF1.9187307357788086
aF16.389541625976562
aa(lp5
F77.5
aF10.5
aF1
aF13
aF180
aa.(lp1
(lp2
F74.969070434570312
aF75.800018310546875
aF157.45591735839844
aF27.032138824462891
aF10.801620483398438
aa(lp3
F98.984786987304688
aF62.140583038330078
aF122.33004760742188
aF15.101251602172852
aF12.88818359375
aa(lp4
F77.353668212890625
aF135.81707763671875
aF27.166156768798828
aF5.7424402236938477
aF6.3401870727539062
aa(lp5
F81.250007629394531
aF5.2500009536743164
aF4.242640495300293
aF0.70710670948028564
aF45
aa(lp6
F71.779228210449219
aF86.080825805664062
aF60.439720153808594
aF1.8452950716018677
aF16.144340515136719
aa(lp7
F78.800003051757812
aF14.399998664855957
aF5.3665633201599121
aF0.89442712068557739
aF26.565048217773438
aa(lp8
F78.5
aF27.500001907348633
aF0.63245546817779541
aF5.0596437454223633
aF161.56505012512207
aa.(lp1
(lp2
F78.14532470703125
aF77.588371276855469
aF159.4073486328125
aF27.264410018920898
aF9.057891845703125
aa(lp3
F100.80697631835938
aF64.083175659179688
aF123.97342681884766
aF16.142120361328125
aF12.225120544433594
aa(lp4
F73.851898193359375
aF87.603500366210938
aF61.399391174316406
aF2.0880308151245117
aF16.389541625976562
aa(lp5
F80.558830261230469
aF18.76470947265625
aF12.369317054748535
aF1.9402849674224854
aF14.036239624023438
aa(lp6
F83.750007629394531
aF6.7500009536743164
aF5.6568536758422852
aF0.70710670948028564
aF45
aa.(lp1
(lp2
F73.33648681640625
aF78.098808288574219
aF157.3623046875
aF20.182598114013672
aF6.2993545532226562
aa(lp3
F99.489517211914062
aF64.148094177246094
aF123.16391754150391
aF19.442619323730469
aF10.388862609863281
aa(lp4
F78.384674072265625
aF138.33283996582031
aF26.172506332397461
aF5.807621955871582
aF6.5819473266601562
aa(lp5
F77.411766052246094
aF72.647056579589844
aF26.234237670898438
aF1.7489492893218994
aF19.653823852539062
aa(lp6
F69.095985412597656
aF101.52799224853516
aF28.159997940063477
aF1.4399995803833008
aF16.260208129882812
aa(lp7
F82.250007629394531
aF7.2500009536743164
aF4.242640495300293
aF0.70710670948028564
aF45
aa(lp8
F96.596153259277344
aF1.9807692766189575
aF5.0990195274353027
aF0.98058068752288818
aF78.690067291259766
aa(lp9
F80
aF16.5
aF5.3665633201599121
aF0.4472135603427887
aF26.565048217773438
aa.(lp1
(lp2
F86.552024841308594
aF61.161842346191406
aF123.62249755859375
aF43.412326812744141
aF8.7461624145507812
aa(lp3
F62.917808532714844
aF137.78082275390625
aF9.5973749160766602
aF38.623580932617188
aF159.44395446777344
aa(lp4
F76.561767578125
aF136.19703674316406
aF26.076812744140625
aF5.1386661529541016
aF4.398712158203125
aa(lp5
F66.300010681152344
aF103.10000610351562
aF25.298219680786133
aF1.2649109363555908
aF18.434951782226562
aa(lp6
F74.809577941894531
aF72.598503112792969
aF32.26953125
aF1.4727034568786621
aF17.650115966796875
aa(lp7
F77.741378784179688
aF14.896550178527832
aF6.3136410713195801
aF0.92847669124603271
aF21.801406860351562
aa(lp8
F81.250007629394531
aF4.2500004768371582
aF1.4142134189605713
aF0.70710670948028564
aF45
aa(lp9
F77.617645263671875
aF26.97059440612793
aF0.72760689258575439
aF6.0633902549743652
aF165.96375560760498
aa.(lp1
(lp2
F86.925819396972656
aF79.212364196777344
aF159.15933227539062
aF43.604152679443359
aF8.4711532592773438
aa(lp3
F73.160377502441406
aF87.188674926757812
aF64.284744262695312
aF2.060408353805542
aF15.945396423339844
aa(lp4
F78.46923828125
aF138.24615478515625
aF26.419399261474609
aF5.7055974006652832
aF7.1250152587890625
aa(lp5
F104.00001525878906
aF9.500004768371582
aF0.70710670948028564
aF6.3639612197875977
aF135
aa(lp6
F82.250007629394531
aF7.2500009536743164
aF5.6568536758422852
aF0.70710670948028564
aF45
aa(lp7
F79.5294189453125
aF18.382354736328125
aF9.2163534164428711
aF1.212678074836731
aF14.036239624023438
aa.(lp1
(lp2
F83.596580505371094
aF73.189483642578125
aF150.31832885742188
aF43.463752746582031
aF8.5307693481445312
aa(lp3
F76.932182312011719
aF127.23187255859375
aF26.291378021240234
aF4.7658095359802246
aF6.8427734375
aa(lp4
F65.300003051757812
aF97.599998474121094
aF18.024980545043945
aF0.94868320226669312
aF18.434951782226562
aa(lp5
F73.583488464355469
aF67.87908935546875
aF39.281257629394531
aF1.8587346076965332
aF16.189201354980469
aa(lp6
F77.500007629394531
aF16.5
aF0.78446453809738159
aF9.0213432312011719
aF168.69006729125977
aa(lp7
F77.700004577636719
aF6.9000024795532227
aF6.3245549201965332
aF0.63245546817779541
aF18.434951782226562
aa.(lp1
(lp2
F80.422492980957031
aF71.458015441894531
aF147.81028747558594
aF43.98614501953125
aF9.0017547607421875
aa(lp3
F73.626380920410156
aF125.17011260986328
aF26.156435012817383
aF5.1834397315979004
aF4.5739212036132812
aa(lp4
F64.037208557128906
aF89.163497924804688
aF31.320669174194336
aF1.4142134189605713
aF16.927513122558594
aa(lp5
F72.577857971191406
aF59.183868408203125
aF27.201696395874023
aF1.4727034568786621
aF17.650115966796875
aa(lp6
F74.000007629394531
aF109.50001525878906
aF2.1213202476501465
aF0.70710670948028564
aF45
aa.(lp1
(lp2
F70.820579528808594
aF77.197555541992188
aF153.78910827636719
aF23.536550521850586
aF3.3419418334960938
aa(lp3
F98.272666931152344
aF62.650100708007812
aF123.2210693359375
aF15.668972969055176
aF12.783454895019531
aa(lp4
F77.012451171875
aF66.160148620605469
aF18.672014236450195
aF1.6703400611877441
aF17.354026794433594
aa(lp5
F78.169807434082031
aF15.905658721923828
aF8.5163545608520508
aF1.373605489730835
aF15.945396423339844
aa(lp6
F69.449996948242188
aF92.149993896484375
aF6.3245549201965332
aF0.94868320226669312
aF18.434951782226562
aa(lp7
F104.75000762939453
aF10.250000953674316
aF0.70710670948028564
aF1.4142134189605713
aF135
aa(lp8
F65.240882873535156
aF106.58758544921875
aF18.026947021484375
aF1.0252292156219482
aF19.983108520507812
aa(lp9
F70.800010681152344
aF85.600006103515625
aF3.1622774600982666
aF0.63245546817779541
aF18.434951782226562
aa(lp10
F95.5
aF1.5
aF13
aF1
aF90
aa.(lp1
(lp2
F79.234710693359375
aF76.066246032714844
aF155.37455749511719
aF43.604053497314453
aF8.9149246215820312
aa(lp3
F60.137626647949219
aF103.54129791259766
aF19.922786712646484
aF1.149391770362854
aF16.699241638183594
aa(lp4
F68.964874267578125
aF72.98919677734375
aF39.260463714599609
aF1.8380368947982788
aF17.102729797363281
aa(lp5
F73.200004577636719
aF25.600006103515625
aF0.63245546817779541
aF3.1622774600982666
aF161.56505012512207
aa(lp6
F73.170738220214844
aF14.463415145874023
aF11.043154716491699
aF0.88345223665237427
aF6.3401870727539062
aa.(lp1
(lp2
F70.50689697265625
aF78.867469787597656
aF156.173583984375
aF24.742786407470703
aF4.5247650146484375
aa(lp3
F97.317779541015625
aF63.676105499267578
aF124.52245330810547
aF19.72938346862793
aF10.762542724609375
aa(lp4
F64.664375305175781
aF107.56163787841797
aF15.800556182861328
aF1.1704113483428955
aF20.556045532226562
aa(lp5
F73.008110046386719
aF78.848648071289062
aF39.554550170898438
aF1.8380368947982788
aF17.102729797363281
aa(lp6
F80.76922607421875
aF7.3461570739746094
aF6.3790526390075684
aF1.1094005107879639
aF33.6900634765625
aa(lp7
F79.000007629394531
aF14.999999046325684
aF4.4721360206604004
aF0.89442712068557739
aF26.565048217773438
aa(lp8
F77.5
aF22
aF1
aF6
aF180
aa(lp9
F96.099998474121094
aF1.2999963760375977
aF0.4472135603427887
aF2.2360680103302002
aF116.56504821777344
aa.(lp1
(lp2
F85.1378173828125
aF59.921554565429688
aF122.70800018310547
aF43.689399719238281
aF9.2835540771484375
aa(lp3
F60.510951995849609
aF134.90512084960938
aF9.3979339599609375
aF38.616966247558594
aF160.01689338684082
aa(lp4
F75
aF132
aF4
aF22
aF180
aa(lp5
F64.671257019042969
aF100.71480560302734
aF26.248807907104492
aF1.4095878601074219
aF17.744674682617188
aa(lp6
F73.306076049804688
aF70.932548522949219
aF31.291589736938477
aF1.7657986879348755
aF19.17901611328125
aa(lp7
F72.250007629394531
aF146.25001525878906
aF2.8284268379211426
aF0.70710670948028564
aF45
aa(lp8
F77.27947998046875
aF17.9039306640625
aF16.123973846435547
aF1.5859644412994385
aF7.5946426391601562
aa(lp9
F79.000007629394531
aF4.5000004768371582
aF2.1213202476501465
aF0.70710670948028564
aF45
aa(lp10
F75.100006103515625
aF118.70000457763672
aF2.2360680103302002
aF0.4472135603427887
aF63.43494987487793
aa.(lp1
(lp2
F82.165809631347656
aF73.84820556640625
aF151.95982360839844
aF44.087478637695312
aF9.648040771484375
aa(lp3
F73.816749572753906
aF63.113124847412109
aF23.072673797607422
aF1.4798799753189087
aF19.653823852539062
aa(lp4
F63.150005340576172
aF99.050010681152344
aF18.973663330078125
aF0.94868320226669312
aF18.434951782226562
aa(lp5
F76.911773681640625
aF10.352943420410156
aF13.339459419250488
aF1.4552137851715088
aF14.036239624023438
aa(lp6
F67.903839111328125
aF82.48077392578125
aF11.178619384765625
aF0.78446465730667114
aF11.309928894042969
aa.(lp1
(lp2
F90.448600769042969
aF62.49609375
aF126.18267059326172
aF42.925907135009766
aF10.042022705078125
aa(lp3
F65.3941650390625
aF139.08393859863281
aF9.7396774291992188
aF38.873275756835938
aF160.01689529418945
aa(lp4
F87.128372192382812
aF5.979731559753418
aF8.602325439453125
aF1.278724193572998
aF54.462322235107422
aa(lp5
F79.400009155273438
aF138.30000305175781
aF26.295364379882812
aF5.5815629959106445
aF7.1250152587890625
aa(lp6
F82.67431640625
aF17.752292633056641
aF10.440306663513184
aF1.7240874767303467
aF16.699241638183594
aa(lp7
F68.273971557617188
aF108.60274505615234
aF18.024333953857422
aF0.93632912635803223
aF20.556045532226562
aa(lp8
F77.028190612792969
aF78.853591918945312
aF39.552825927734375
aF1.8771951198577881
aF17.241462707519531
aa.(lp1
(lp2
F34.5
aF126.5
aF67
aF143
aF180
aa(lp3
F38
aF23.5
aF26
aF45
aF180
aa(lp4
F24.5
aF77
aF3
aF6
aF180
aa(lp5
F17
aF97
aF4
aF2
aF90
aa(lp6
F22.600002288818359
aF57.700004577636719
aF6.7082037925720215
aF1.7888542413711548
aF63.43494987487793
aa(lp7
F22.000001907348633
aF69.000007629394531
aF5.6568536758422852
aF2.8284268379211426
aF45
aa(lp8
F22.100002288818359
aF191.80000305175781
aF0.4472135603427887
aF4.4721360206604004
aF116.56504821777344
aa.(lp1
(lp2
F74.9403076171875
aF73.496856689453125
aF155.42823791503906
aF31.249465942382812
aF12.488082885742188
aa(lp3
F96.81207275390625
aF71.905876159667969
aF143.74615478515625
aF13.372119903564453
aF15.296546936035156
aa(lp4
F75.500007629394531
aF144.50001525878906
aF2.8284268379211426
aF1.4142134189605713
aF45
aa(lp5
F76.930717468261719
aF64.636016845703125
aF25.947483062744141
aF1.7565995454788208
aF17.525566101074219
aa(lp6
F67.150001525878906
aF100.05001068115234
aF12.649110794067383
aF0.94868344068527222
aF18.434951782226562
aa(lp7
F63.500011444091797
aF110.50001525878906
aF3.1304950714111328
aF0.4472135603427887
aF26.565048217773438
aa(lp8
F70.735298156738281
aF87.558822631835938
aF5.0932478904724121
aF0.72760689258575439
aF14.036239624023438
aa(lp9
F79.299995422363281
aF25.100000381469727
aF0.4472135603427887
aF2.2360680103302002
aF153.43494987487793
aa.(lp1
(lp2
F71.789421081542969
aF78.062362670898438
aF153.78199768066406
aF20.45654296875
aF3.7313995361328125
aa(lp3
F95.689315795898438
aF61.613132476806641
aF120.35955047607422
aF26.464401245117188
aF6.2344818115234375
aa(lp4
F74.650001525878906
aF70.050003051757812
aF24.981992721557617
aF1.2649109363555908
aF18.434951782226562
aa(lp5
F68.750007629394531
aF92.750007629394531
aF1.4142134189605713
aF0.70710670948028564
aF45
aa(lp6
F63.650001525878906
aF110.05001068115234
aF4.1109609603881836
aF0.63245546817779541
aF18.434951782226562
aa(lp7
F66.150001525878906
aF102.55001068115234
aF7.2732377052307129
aF0.63245546817779541
aF18.434951782226562
aa(lp8
F76.615394592285156
aF16.923078536987305
aF12.159199714660645
aF1.17669677734375
aF11.309928894042969
aa.(lp1
(lp2
F72.532089233398438
aF79.460556030273438
aF158.53205871582031
aF18.885425567626953
aF4.426971435546875
aa(lp3
F96.478126525878906
aF78.836746215820312
aF153.94712829589844
aF16.322778701782227
aF11.659294128417969
aa(lp4
F83.000007629394531
aF6.5000009536743164
aF7.7781744003295898
aF0.70710659027099609
aF45
aa(lp5
F79.040931701660156
aF68.669036865234375
aF17.717536926269531
aF1.4317200183868408
aF17.354026794433594
aa(lp6
F102.74590301513672
aF8.7950859069824219
aF0.89625817537307739
aF10.627062797546387
aF140.19443130493164
aa(lp7
F79.4705810546875
aF18.882350921630859
aF10.195732116699219
aF1.301582932472229
aF12.52880859375
aa(lp8
F96
aF1.5
aF1
aF12
aF90
aa(lp9
F68.150001525878906
aF109.05001068115234
aF18.973663330078125
aF0.94868320226669312
aF18.434951782226562
aa(lp10
F79.884613037109375
aF30.423074722290039
aF0.78446453809738159
aF5.0990195274353027
aF168.69006729125977
aa.(lp1
(lp2
F72.519943237304688
aF79.57574462890625
aF158.6092529296875
aF16.897825241088867
aF4.426971435546875
aa(lp3
F96.976104736328125
aF62.674087524414062
aF123.57248687744141
aF26.964385986328125
aF5.1520843505859375
aa(lp4
F78.243911743164062
aF139.80487060546875
aF27.166156768798828
aF5.5215773582458496
aF6.3401870727539062
aa(lp5
F77.599998474121094
aF68.70001220703125
aF18.024980545043945
aF1.5811388492584229
aF18.434951782226562
aa(lp6
F81.750007629394531
aF6.7500009536743164
aF8.4852809906005859
aF0.70710659027099609
aF45
aa(lp7
F71.800010681152344
aF89.099998474121094
aF4.1109609603881836
aF0.94868320226669312
aF18.434951782226562
aa(lp8
F68.349998474121094
aF104.95000457763672
aF4.1109609603881836
aF0.63245546817779541
aF18.434951782226562
aa(lp9
F78.623588562011719
aF18.297748565673828
aF13.341665267944336
aF1.7988762855529785
aF12.994621276855469
aa(lp10
F103.76921844482422
aF11.653839111328125
aF0.55470019578933716
aF3.6055512428283691
aF146.30993270874023
aa.(lp1
(lp2
F55.56951904296875
aF84.776084899902344
aF141.47508239746094
aF12.062810897827148
aF6.1322250366210938
aa(lp3
F20.614097595214844
aF122.31507873535156
aF33.417621612548828
aF81.354637145996094
aF166.67546939849854
aa(lp4
F20.3426513671875
aF41.959823608398438
aF63.047103881835938
aF16.895343780517578
aF4.3160247802734375
aa(lp5
F14.764705657958984
aF16.44117546081543
aF9.2195453643798828
aF3.2539570331573486
aF40.601299285888672
aa(lp6
F18.499998092651367
aF151.5
aF0.83205032348632812
aF5.8243522644042969
aF123.6900634765625
aa(lp7
F23.687862396240234
aF117.02889251708984
aF20.223608016967773
aF1.2164576053619385
aF8.7461624145507812
aa.(lp1
(lp2
F48.683200836181641
aF128.38247680664062
aF148.78451538085938
aF42.886562347412109
aF9.3099365234375
aa(lp3
F37
aF22
aF22
aF40
aF180
aa(lp4
F33.879615783691406
aF84.870712280273438
aF59.997459411621094
aF8.3875083923339844
aF2.04541015625
aa(lp5
F42.67010498046875
aF2.2422678470611572
aF8.22430419921875
aF19.697715759277344
aF113.96248626708984
aa(lp6
F33.375862121582031
aF84.989662170410156
aF20.01396369934082
aF0.91350036859512329
aF4.7636489868164062
aa.(lp1
(lp2
F24.069229125976562
aF65.74615478515625
aF4.5892844200134277
aF10.294882774353027
aF150.25511741638184
aa(lp3
F22.679512023925781
aF164.18357849121094
aF37.471401214599609
aF9.6831130981445312
aF7.765167236328125
aa(lp4
F32.745208740234375
aF70.87945556640625
aF58.034286499023438
aF6.6620988845825195
aF2.1211013793945312
aa(lp5
F62.536865234375
aF115.67352294921875
aF143.21908569335938
aF11.18698787689209
aF6.4416046142578125
aa(lp6
F39.291763305664062
aF188.512939453125
aF4.0473666191101074
aF29.154756546020508
aF95.906150817871094
aa(lp7
F30.221099853515625
aF132.10368347167969
aF35.339118957519531
aF7.324836254119873
aF9.865814208984375
aa(lp8
F25.975406646728516
aF52.729503631591797
aF7.8102502822875977
aF3.9691433906555176
aF39.805568695068359
aa(lp9
F27.250003814697266
aF63.750007629394531
aF0.70710670948028564
aF2.8284268379211426
aF135
aa(lp10
F53
aF184.5
aF1
aF2
aF90
aa(lp11
F27.750005722045898
aF75.250007629394531
aF0.70710670948028564
aF1.4142134189605713
aF135
aa(lp12
F29.800010681152344
aF183.90000915527344
aF0.89442706108093262
aF6.7082037925720215
aF116.56504821777344
aa(lp13
F28.939023971557617
aF138.54878234863281
aF9.0553855895996094
aF0.88345223665237427
aF6.3401870727539062
aa.(lp1
(lp2
F59.068367004394531
aF120.91835784912109
aF148.51715087890625
aF25.063545227050781
aF13.374435424804688
aa(lp3
F31.600994110107422
aF73.37664794921875
aF55.077808380126953
aF6.5472655296325684
aF2.4366531372070312
aa(lp4
F25.100004196166992
aF179.80000305175781
aF8.4970579147338867
aF18.782970428466797
aF116.56504821777344
aa(lp5
F22.495574951171875
aF158.06636047363281
aF61.130977630615234
aF15.099817276000977
aF3.8140792846679688
aa(lp6
F33.869232177734375
aF122.54616546630859
aF9.0545358657836914
aF0.86824309825897217
aF7.1250152587890625
aa(lp7
F29.087932586669922
aF59.005172729492188
aF22.07948112487793
aF1.2331624031066895
aF3.366455078125
aa.(lp1
(lp2
F66.706344604492188
aF127.20420074462891
aF140.90933227539062
aF12.127163887023926
aF6.8234634399414062
aa(lp3
F28.958625793457031
aF161.00482177734375
aF77.2327880859375
aF14.427026748657227
aF4.6858978271484375
aa(lp4
F32.545684814453125
aF26.997066497802734
aF8.8303842544555664
aF35.263633728027344
aF157.89055061340332
aa(lp5
F35.237884521484375
aF78.85247802734375
aF48.223644256591797
aF6.6597652435302734
aF3.7313995361328125
aa(lp6
F39.109432220458984
aF4.4830188751220703
aF7.9924492835998535
aF25.975460052490234
aF92.489555358886719
aa(lp7
F45.5
aF201
aF21
aF4
aF90
aa(lp8
F28.600009918212891
aF193.80000305175781
aF0.89442682266235352
aF14.310833930969238
aF116.56504821777344
aa(lp9
F44.500003814697266
aF37.500003814697266
aF2.8284268379211426
aF1.4142134189605713
aF45
aa(lp10
F47
aF22.5
aF4
aF23
aF180
aa.(lp1
(lp2
F65.238662719726562
aF126.85379791259766
aF141.46926879882812
aF11.887259483337402
aF6.2344818115234375
aa(lp3
F30.050148010253906
aF175.69293212890625
aF31.651983261108398
aF61.631973266601562
aF160.66519355773926
aa(lp4
F21.746509552001953
aF85.702529907226562
aF60.02557373046875
aF35.477489471435547
aF0.987762451171875
aa(lp5
F31.369810104370117
aF27.005657196044922
aF9.1482133865356445
aF37.197238922119141
aF159.07549858093262
aa(lp6
F44.775344848632812
aF25.065752029418945
aF27.980815887451172
aF4.5894465446472168
aF2.1211013793945312
aa(lp7
F37.384231567382812
aF131.65603637695312
aF17.262676239013672
aF1.7957816123962402
aF10.007980346679688
aa(lp8
F35
aF6.5
aF22
aF5
aF90
aa(lp9
F26.149999618530273
aF74.949996948242188
aF0.94868320226669312
aF4.4271879196166992
aF161.5650520324707
aa(lp10
F23.500005722045898
aF191.50001525878906
aF0.44721341133117676
aF5.813776969909668
aF116.56504821777344
aa.(lp1
(lp2
F71.697837829589844
aF78.529617309570312
aF158.72467041015625
aF22.560699462890625
aF6.666656494140625
aa(lp3
F95.146041870117188
aF63.934955596923828
aF122.47866058349609
aF20.493492126464844
aF8.4612884521484375
aa(lp4
F73.906051635742188
aF69.619422912597656
aF19.638774871826172
aF1.4108314514160156
aF16.389541625976562
aa(lp5
F74.470596313476562
aF16.882350921630859
aF10.195732116699219
aF1.301582932472229
aF12.52880859375
aa(lp6
F77.156082153320312
aF135.96546936035156
aF3.4688830375671387
aF22.022153854370117
aF176.98721265792847
aa(lp7
F76.750007629394531
aF6.7500009536743164
aF4.242640495300293
aF0.70710670948028564
aF45
aa(lp8
F75.200004577636719
aF31.600004196166992
aF0.63245546817779541
aF3.1622774600982666
aF161.56505012512207
aa.(lp1
(lp2
F59.925971984863281
aF67.981094360351562
aF127.44499969482422
aF42.726600646972656
aF6.2034454345703125
aa(lp3
F48.450004577636719
aF76.650009155273438
aF19.92234992980957
aF1.2649111747741699
aF18.434951782226562
aa(lp4
F52.500007629394531
aF13.000001907348633
aF7.7781744003295898
aF0.70710670948028564
aF45
aa.(lp1
(lp2
F59.671585083007812
aF85.703086853027344
aF162.47813415527344
aF43.233489990234375
aF6.9272232055664062
aa(lp3
F72.500007629394531
aF14.000002861022949
aF0.70710676908493042
aF12.020814895629883
aF135
aa(lp4
F50.871372222900391
aF77.232376098632812
aF31.048347473144531
aF1.8036384582519531
aF14.931419372558594
aa(lp5
F54.155731201171875
aF13.713113784790039
aF10.627062797546387
aF1.152332067489624
aF39.805568695068359
aa(lp6
F72.750007629394531
aF10.250000953674316
aF0.70710670948028564
aF4.242640495300293
aF135
aa(lp7
F52.038066864013672
aF34.032997131347656
aF1.2111998796463013
aF18.025503158569336
aF175.91438341140747
aa(lp8
F52.500007629394531
aF21.000003814697266
aF2.1213202476501465
aF0.70710670948028564
aF45
aa.(lp1
(lp2
F82.1856689453125
aF62.9674072265625
aF125.85141754150391
aF42.359745025634766
aF6.7400588989257812
aa(lp3
F60.922565460205078
aF141.1614990234375
aF8.6567277908325195
aF36.530796051025391
aF157.24902534484863
aa(lp4
F74.750007629394531
aF5.7500009536743164
aF5.6568536758422852
aF0.70710670948028564
aF45
aa(lp5
F75
aF136
aF4
aF22
aF180
aa(lp6
F74.500007629394531
aF122.50001525878906
aF3.1304950714111328
aF0.44721353054046631
aF63.43494987487793
aa(lp7
F72.213165283203125
aF66.162086486816406
aF24.511293411254883
aF1.9059414863586426
aF12.804267883300781
aa(lp8
F72.153465270996094
aF18.96534538269043
aF12.039951324462891
aF0.89553350210189819
aF5.7105941772460938
aa.(lp1
(lp2
F79.376922607421875
aF79.484603881835938
aF158.64042663574219
aF42.047779083251953
aF7.1250152587890625
aa(lp3
F74.246894836425781
aF136.43765258789062
aF3.5455708503723145
aF21.073673248291016
aF177.1375949382782
aa(lp4
F64.000007629394531
aF99.000015258789062
aF6.3059263229370117
aF0.9701424241065979
aF14.036239624023438
aa(lp5
F71.32110595703125
aF67.596343994140625
aF23.754093170166016
aF1.5325222015380859
aF16.699241638183594
aa(lp6
F71.225608825683594
aF22.530487060546875
aF0.99388384819030762
aF13.030921936035156
aF173.65980863571167
aa(lp7
F74.100006103515625
aF122.70001220703125
aF2.2360680103302002
aF0.4472135603427887
aF63.43494987487793
aa(lp8
F73
aF6.4999990463256836
aF3.5777084827423096
aF0.4472135603427887
aF26.565048217773438
aa.(lp1
(lp2
F18.646625518798828
aF81.70245361328125
aF60.008327484130859
aF35.711704254150391
aF0.95484161376953125
aa(lp3
F60.717796325683594
aF131.7646484375
aF147.25711059570312
aF41.318645477294922
aF20.508102416992188
aa(lp4
F30.25
aF22.750005722045898
aF40.446506500244141
aF22.768835067749023
aF8.1301040649414062
aa(lp5
F25.065984725952148
aF163.16075134277344
aF70.576095581054688
aF13.106371879577637
aF7.4314117431640625
aa(lp6
F32
aF152.5
aF2
aF17
aF180
aa(lp7
F22.5
aF59.5
aF1
aF3
aF180
aa(lp8
F42.485149383544922
aF22.351486206054688
aF3.0846152305603027
aF21.094789505004883
aF174.28940677642822
aa.(lp1
(lp2
F77.574371337890625
aF77.562088012695312
aF154.908203125
aF42.159751892089844
aF6.1701736450195312
aa(lp3
F72.797119140625
aF135.5718994140625
aF27.058364868164062
aF4.5163884162902832
aF2.2906112670898438
aa(lp4
F70.617660522460938
aF28.470590591430664
aF0.9701424241065979
aF7.0335330963134766
aF165.96375560760498
aa(lp5
F70.000007629394531
aF4.500002384185791
aF2.1213202476501465
aF0.70710670948028564
aF45
aa(lp6
F68.422416687011719
aF69.681045532226562
aF9.8479833602905273
aF1.0504516363143921
aF23.198593139648438
aa(lp7
F71.639999389648438
aF57.519996643066406
aF11.030865669250488
aF0.84852820634841919
aF8.1301040649414062
aa(lp8
F69.5
aF17
aF1
aF12
aF180
aa.(lp1
(lp2
F84.125274658203125
aF78.9036865234375
aF158.34605407714844
aF42.9423828125
aF6.282501220703125
aa(lp3
F76.266090393066406
aF64.182403564453125
aF22.559839248657227
aF1.8066401481628418
aF13.392494201660156
aa(lp4
F96.750007629394531
aF6.2500042915344238
aF0.70710670948028564
aF5.6568536758422852
aF135
aa(lp5
F75.5
aF21
aF1
aF12
aF180
aa.(lp1
(lp2
F64.10595703125
aF82.603446960449219
aF159.49005126953125
aF42.946571350097656
aF6.7400588989257812
aa(lp3
F57.000007629394531
aF13.500001907348633
aF6.3639612197875977
aF0.70710670948028564
aF45
aa(lp4
F53.258613586425781
aF82.103439331054688
aF6.3136410713195801
aF0.92847669124603271
aF21.801406860351562
aa(lp5
F56.5
aF21
aF2
aF1
aF0
aa(lp6
F56.486484527587891
aF70.081077575683594
aF14.138313293457031
aF1.3151919841766357
aF9.4623260498046875
aa.(lp1
(lp2
F71.121292114257812
aF76.475128173828125
aF157.07916259765625
aF28.428400039672852
aF8.775054931640625
aa(lp3
F91.52117919921875
aF75.052833557128906
aF146.06561279296875
aF15.343756675720215
aF11.842079162597656
aa(lp4
F73.250007629394531
aF6.2500009536743164
aF7.0710678100585938
aF0.70710676908493042
aF45
aa(lp5
F72.627586364746094
aF18.968967437744141
aF14.117733001708984
aF1.743955135345459
aF4.7636489868164062
aa(lp6
F72.175956726074219
aF65.66094970703125
aF23.532644271850586
aF1.8529642820358276
aF13.392494201660156
aa(lp7
F73.147071838378906
aF31.088239669799805
aF0.72760689258575439
aF4.123105525970459
aF165.96375560760498
aa.(lp1
(lp2
F49.695671081542969
aF156.08784484863281
aF11.711847305297852
aF54.07037353515625
aF178.8308607339859
aa(lp3
F62.5908203125
aF57.425563812255859
aF120.9493408203125
aF36.350826263427734
aF11.996894836425781
aa(lp4
F60.705883026123047
aF96.676460266113281
aF29.146881103515625
aF5.1036953926086426
aF4.5739212036132812
aa(lp5
F58.726413726806641
aF26.207546234130859
aF22.801853179931641
aF1.7856872081756592
aF15.945396423339844
aa.(lp1
(lp2
F82.498870849609375
aF78.793960571289062
aF158.90238952636719
aF43.202800750732422
aF7.8152847290039062
aa(lp3
F76.420005798339844
aF6.4400029182434082
aF7
aF1.2000000476837158
aF36.869899749755859
aa(lp4
F76.690765380859375
aF136.433837890625
aF2.6625609397888184
aF23.020057678222656
aF176.8201699256897
aa(lp5
F74.099998474121094
aF150.80001831054688
aF4.1109609603881836
aF0.94868320226669312
aF71.565052032470703
aa(lp6
F74.504592895507812
aF66.651382446289062
aF21.838441848754883
aF1.3409571647644043
aF16.699241638183594
aa(lp7
F75.5
aF20.5
aF1
aF13
aF180
aa.(lp1
(lp2
F75.863082885742188
aF73.079475402832031
aF150.02163696289062
aF42.178131103515625
aF8.5307693481445312
aa(lp3
F69.719993591308594
aF126.96000671386719
aF2.6625609397888184
aF21.966129302978516
aF176.8201699256897
aa(lp4
F68.550376892089844
aF57.173801422119141
aF20.878440856933594
aF1.4554681777954102
aF17.525566101074219
aa(lp5
F67.599998474121094
aF141.69999694824219
aF3.1304950714111328
aF0.89442712068557739
aF63.43494987487793
aa(lp6
F70.044837951660156
aF9.9620704650878906
aF12.041595458984375
aF0.91350036859512329
aF4.7636489868164062
aa.(lp1
(lp2
F90.021636962890625
aF63.745643615722656
aF122.18032073974609
aF20.344259262084961
aF10.388862609863281
aa(lp3
F63.029415130615234
aF59.882366180419922
aF125.39091491699219
aF16.007350921630859
aF14.036239624023438
aa(lp4
F56.063865661621094
aF139.13687133789062
aF8.9410076141357422
aF33.649600982666016
aF154.98310470581055
aa(lp5
F69.14117431640625
aF137.16470336914062
aF26.076812744140625
aF4.2950038909912109
aF4.398712158203125
aa(lp6
F73.250007629394531
aF5.250004768371582
aF2.8284268379211426
aF0.70710670948028564
aF45
aa(lp7
F88.750007629394531
aF1.7500040531158447
aF1.4142134189605713
aF0.70710670948028564
aF45
aa(lp8
F71.743247985839844
aF26.959463119506836
aF0.82199490070343018
aF8.0555505752563477
aF170.53767776489258
aa(lp9
F71.950004577636719
aF15.350000381469727
aF11.401752471923828
aF1.1401753425598145
aF15.255119323730469
aa.(lp1
(lp2
F66.670150756835938
aF75.185287475585938
aF152.92837524414062
aF24.569694519042969
aF9.9637985229492188
aa(lp3
F91.741119384765625
aF60.333873748779297
aF117.88499450683594
aF16.692825317382812
aF10.437477111816406
aa(lp4
F69.650001525878906
aF60.550003051757812
aF22.135942459106445
aF1.5811386108398438
aF18.434951782226562
aa(lp5
F69.5
aF129
aF3
aF26
aF180
aa(lp6
F67.099998474121094
aF144.80000305175781
aF4.1109609603881836
aF0.94868320226669312
aF71.565052032470703
aa(lp7
F72.5689697265625
aF8.3275871276855469
aF5.385164737701416
aF0.92847669124603271
aF21.801406860351562
aa(lp8
F71.955177307128906
aF18.962070465087891
aF0.91350036859512329
aF12.041595458984375
aF175.23635816574097
aa.(lp1
(lp2
F83.543411254882812
aF62.35308837890625
aF126.13423919677734
aF43.417972564697266
aF9.54913330078125
aa(lp3
F58.823554992675781
aF141.18106079101562
aF8.4540081024169922
aF35.813724517822266
aF157.89055061340332
aa(lp4
F72.5
aF134.5
aF3
aF25
aF180
aa(lp5
F82.750007629394531
aF5.7500009536743164
aF5.6568536758422852
aF0.70710670948028564
aF45
aa(lp6
F77.250007629394531
aF6.2500009536743164
aF7.0710678100585938
aF0.70710676908493042
aF45
aa(lp7
F73.594345092773438
aF64.669815063476562
aF23.763378143310547
aF1.7856872081756592
aF15.945396423339844
aa(lp8
F75.762382507324219
aF21.876237869262695
aF20.099750518798828
aF2.4875931739807129
aF5.7105941772460938
aa(lp9
F61.700008392333984
aF105.10001373291016
aF2.2360680103302002
aF0.4472135603427887
aF26.565048217773438
aa.(lp1
(lp2
F42.8780517578125
aF166.59754943847656
aF63.277271270751953
aF6.0737347602844238
aF6.3401870727539062
aa(lp3
F43.685562133789062
aF31.917533874511719
aF74.452255249023438
aF31.8055419921875
aF21.037513732910156
aa(lp4
F60.090297698974609
aF156.44920349121094
aF148.13742065429688
aF42.061511993408203
aF9.3099365234375
aa(lp5
F36.799999237060547
aF25.400001525878906
aF5.3665633201599121
aF0.89442712068557739
aF26.565048217773438
aa(lp6
F40.700004577636719
aF13.100000381469727
aF2.2360680103302002
aF0.4472135603427887
aF26.565048217773438
aa.(lp1
(lp2
F84.349884033203125
aF79.221405029296875
aF160.28912353515625
aF33.804569244384766
aF14.601272583007812
aa(lp3
F67.95501708984375
aF59.676033020019531
aF121.02940368652344
aF9.6924552917480469
aF11.842079162597656
aa(lp4
F65.70001220703125
aF99.600013732910156
aF3.1304950714111328
aF0.89442712068557739
aF26.565048217773438
aa(lp5
F78.303749084472656
aF21.418085098266602
aF19.103544235229492
aF1.635777473449707
aF6.7098388671875
aa(lp6
F82.000007629394531
aF5.5000009536743164
aF4.9497470855712891
aF0.70710670948028564
aF45
aa(lp7
F62.300010681152344
aF110.90000915527344
aF2.2360680103302002
aF0.4472135603427887
aF26.565048217773438
aa.(lp1
(lp2
F65.581085205078125
aF141.01351928710938
aF33.044197082519531
aF20.878671646118164
aF9.4623260498046875
aa(lp3
F96.918792724609375
aF63.916431427001953
aF125.15972900390625
aF19.990007400512695
aF12.127098083496094
aa(lp4
F68.866020202636719
aF58.681453704833984
aF127.72386932373047
aF19.757732391357422
aF18.004165649414062
aa(lp5
F62.000007629394531
aF111.00000762939453
aF6.2609901428222656
aF0.89442712068557739
aF26.565048217773438
aa(lp6
F79.800003051757812
aF14.400002479553223
aF5.3665633201599121
aF0.89442712068557739
aF26.565048217773438
aa(lp7
F100.00001525878906
aF6.4999966621398926
aF0.70710670948028564
aF2.1213202476501465
aF135
aa(lp8
F67.349998474121094
aF94.95001220703125
aF4.1109609603881836
aF0.63245546817779541
aF18.434951782226562
aa(lp9
F78.5
aF28
aF1
aF18
aF180
aa.(lp1
(lp2
F70.621940612792969
aF78.2747802734375
aF157.64239501953125
aF19.785053253173828
aF7.033416748046875
aa(lp3
F97.611946105957031
aF64.450164794921875
aF125.15616607666016
aF16.684286117553711
aF14.370002746582031
aa(lp4
F75.990562438964844
aF66.78302001953125
aF30.081962585449219
aF2.3351292610168457
aF15.945396423339844
aa(lp5
F74.5
aF136.5
aF3
aF23
aF180
aa(lp6
F62.115371704101562
aF112.076904296875
aF4.4376015663146973
aF0.83205032348632812
aF33.690071105957031
aa(lp7
F79.423088073730469
aF18.384616851806641
aF11.178619384765625
aF1.3728129863739014
aF11.309928894042969
aa(lp8
F80.500007629394531
aF8.0000009536743164
aF3.5355339050292969
aF0.70710670948028564
aF45
aa(lp9
F97.5
aF1.5
aF1
aF11
aF90
aa.(lp1
(lp2
F70.6949462890625
aF77.714584350585938
aF158.552978515625
aF23.957733154296875
aF8.3056793212890625
aa(lp3
F94.303665161132812
aF63.542423248291016
aF123.96340942382812
aF21.782316207885742
aF11.768287658691406
aa(lp4
F79.250007629394531
aF5.250004768371582
aF4.242640495300293
aF0.70710670948028564
aF45
aa(lp5
F73.153594970703125
aF65.3182373046875
aF31.047208786010742
aF2.6592903137207031
aF15.422164916992188
aa(lp6
F64.200004577636719
aF96.600021362304688
aF5.3665633201599121
aF0.89442712068557739
aF26.565048217773438
aa(lp7
F76.861381530761719
aF20.886140823364258
aF20.099750518798828
aF2.2885856628417969
aF5.7105941772460938
aa(lp8
F59.500011444091797
aF110.5
aF3.1304950714111328
aF0.4472135603427887
aF26.565048217773438
aa(lp9
F65.852951049804688
aF89.088233947753906
aF4.123105525970459
aF0.72760689258575439
aF14.036239624023438
aa.(lp1
(lp2
F91.942169189453125
aF76.74560546875
aF150.36299133300781
aF17.028472900390625
aF14.145797729492188
aa(lp3
F71.446327209472656
aF77.3616943359375
aF161.02217102050781
aF26.039508819580078
aF11.453887939453125
aa(lp4
F62.300003051757812
aF104.40001678466797
aF3.1304950714111328
aF0.89442712068557739
aF26.565048217773438
aa(lp5
F74.116783142089844
aF64.687721252441406
aF25.954978942871094
aF1.8717526197433472
aF16.927513122558594
aa(lp6
F77.207923889160156
aF22.420791625976562
aF21.094789505004883
aF1.6915633678436279
aF5.7105941772460938
aa(lp7
F60.500011444091797
aF109.50000762939453
aF3.1304950714111328
aF0.4472135603427887
aF26.565048217773438
aa.(lp1
(lp2
F74.927566528320312
aF77.234222412109375
aF160.38639831542969
aF26.364345550537109
aF11.013832092285156
aa(lp3
F100.40764617919922
aF64.043251037597656
aF123.75945281982422
aF16.316341400146484
aF11.768287658691406
aa(lp4
F75.5
aF136.5
aF3
aF23
aF180
aa(lp5
F77.325599670410156
aF64.740791320800781
aF25.959999084472656
aF1.9999997615814209
aF16.260208129882812
aa(lp6
F82.250007629394531
aF6.2500009536743164
aF4.242640495300293
aF0.70710670948028564
aF45
aa(lp7
F63.5
aF111.00000762939453
aF2.1213202476501465
aF0.70710670948028564
aF45
aa(lp8
F75.750007629394531
aF122.75001525878906
aF1.4142134189605713
aF0.70710670948028564
aF45
aa(lp9
F65.000007629394531
aF105.50000762939453
aF3.5777084827423096
aF0.4472135603427887
aF26.565048217773438
aa(lp10
F67.70001220703125
aF96.900001525878906
aF6.3245549201965332
aF0.63245546817779541
aF18.434951782226562
aa(lp11
F80.056922912597656
aF23.475383758544922
aF19.026216506958008
aF0.94299030303955078
aF3.1798324584960938
aa.(lp1
(lp2
F60.394386291503906
aF139.85540771484375
aF13.115291595458984
aF39.693302154541016
aF157.89055252075195
aa(lp3
F92.622512817382812
aF75.860313415527344
aF148.45883178710938
aF16.507617950439453
aF13.600540161132812
aa(lp4
F67.009490966796875
aF57.451362609863281
aF128.86045837402344
aF22.960474014282227
aF20.501426696777344
aa(lp5
F65.500007629394531
aF95.000007629394531
aF2.1213202476501465
aF0.70710670948028564
aF45
aa(lp6
F80.32000732421875
aF5.7600007057189941
aF6.4000000953674316
aF0.80000007152557373
aF53.130104064941406
aa(lp7
F68.650001525878906
aF81.050003051757812
aF4.1109609603881836
aF0.63245546817779541
aF18.434951782226562
aa(lp8
F77.056922912597656
aF23.475383758544922
aF19.026216506958008
aF0.94299030303955078
aF3.1798324584960938
aa.(lp1
(lp2
F72.320587158203125
aF79.377777099609375
aF158.87777709960938
aF21.864706039428711
aF4.9532546997070312
aa(lp3
F97.650161743164062
aF75.74603271484375
aF148.22367858886719
aF16.507617950439453
aF13.600540161132812
aa(lp4
F78.180961608886719
aF68.701766967773438
aF34.197135925292969
aF2.1661734580993652
aF16.504364013671875
aa(lp5
F65.500007629394531
aF111.00001525878906
aF2.1213202476501465
aF0.70710670948028564
aF45
aa(lp6
F104.75000762939453
aF1.7500002384185791
aF1.4142134189605713
aF0.70710670948028564
aF45
aa(lp7
F81.837936401367188
aF20.444829940795898
aF13.038141250610352
aF1.4117732048034668
aF4.7636489868164062
aa(lp8
F97.042678833007812
aF1.1158525943756104
aF0.88345223665237427
aF10.049270629882812
aF96.340187072753906
aa.(lp1
(lp2
F72.817314147949219
aF78.153053283691406
aF159.30387878417969
aF23.306833267211914
aF9.9442977905273438
aa(lp3
F98.5384521484375
aF63.807708740234375
aF123.35703277587891
aF15.493172645568848
aF11.309928894042969
aa(lp4
F80.31707763671875
aF6.3536548614501953
aF7.0278196334838867
aF1.2493901252746582
aF38.659805297851562
aa(lp5
F74.132743835449219
aF138.09063720703125
aF28.229812622070312
aF4.1866245269775391
aF4.5739212036132812
aa(lp6
F75.181045532226562
aF65.716705322265625
aF24.039716720581055
aF1.7325924634933472
aF17.650115966796875
aa(lp7
F79.732765197753906
aF14.456899642944336
aF15.231548309326172
aF2.7574355602264404
aF23.198593139648438
aa.(lp1
(lp2
F70.428321838378906
aF77.513870239257812
aF155.15553283691406
aF21.883308410644531
aF4.9863357543945312
aa(lp3
F100.63460540771484
aF63.826930999755859
aF123.35703277587891
aF15.689289093017578
aF11.309928894042969
aa(lp4
F77.789100646972656
aF61.291088104248047
aF32.755943298339844
aF2.863391637802124
aF12.724357604980469
aa(lp5
F76.5
aF135
aF3
aF26
aF180
aa(lp6
F63.800006866455078
aF110.4000244140625
aF5.3665633201599121
aF0.89442712068557739
aF26.565048217773438
aa(lp7
F80.167129516601562
aF21.912330627441406
aF20.099479675292969
aF1.7796415090560913
aF6.0090103149414062
aa(lp8
F96.5
aF1.5
aF1
aF13
aF90
aa(lp9
F67.500007629394531
aF99.500007629394531
aF3.1304950714111328
aF0.4472135603427887
aF26.565048217773438
aa.(lp1
(lp2
F88.826080322265625
aF61.516365051269531
aF124.22319030761719
aF43.62969970703125
aF8.6641387939453125
aa(lp3
F62.432929992675781
aF139.89634704589844
aF8.597529411315918
aF38.514793395996094
aF159.62356567382812
aa(lp4
F77.506431579589844
aF63.260929107666016
aF28.860645294189453
aF2.3303625583648682
aF14.534454345703125
aa(lp5
F80.295135498046875
aF21.835697174072266
aF22.203603744506836
aF2.4320378303527832
aF7.765167236328125
aa(lp6
F82.750007629394531
aF5.7500009536743164
aF5.6568536758422852
aF0.70710670948028564
aF45
aa(lp7
F76.209053039550781
aF137.13673400878906
aF30.143693923950195
aF4.1866245269775391
aF4.5739212036132812
aa(lp8
F63.5
aF111.00000762939453
aF2.1213202476501465
aF0.70710670948028564
aF45
aa.(lp1
(lp2
F80.508056640625
aF79.1761474609375
aF159.35195922851562
aF43.142284393310547
aF9.9127578735351562
aa(lp3
F73.827705383300781
aF61.309799194335938
aF32.753532409667969
aF3.1812148094177246
aF13.134017944335938
aa(lp4
F59.400009155273438
aF111.20001220703125
aF4.4721360206604004
aF0.89442712068557739
aF26.565048217773438
aa(lp5
F76.295997619628906
aF18.871997833251953
aF12.164211273193359
aF1.6099691390991211
aF10.304847717285156
aa(lp6
F63.3018798828125
aF99.443397521972656
aF11.400925636291504
aF0.82416325807571411
aF15.945396423339844
aa.(lp1
(lp2
F66.317657470703125
aF78.629425048828125
aF156.84071350097656
aF23.320022583007812
aF3.7313995361328125
aa(lp3
F95.85986328125
aF64.100631713867188
aF124.19722747802734
aF16.263149261474609
aF13.134017944335938
aa(lp4
F79.250007629394531
aF6.2499971389770508
aF7.0710678100585938
aF0.70710676908493042
aF45
aa(lp5
F72.671989440917969
aF67.195999145507812
aF31.039999008178711
aF2.1199996471405029
aF16.260208129882812
aa(lp6
F76.86138916015625
aF21.386140823364258
aF21.094789505004883
aF2.3880894184112549
aF5.7105941772460938
aa(lp7
F83.500007629394531
aF7.0000009536743164
aF6.3639612197875977
aF0.70710670948028564
aF45
aa(lp8
F64.450004577636719
aF96.150001525878906
aF6.3245549201965332
aF0.94868320226669312
aF18.434951782226562
aa(lp9
F92.5
aF1.5
aF15
aF1
aF90
aa.(lp1
(lp2
F78.964553833007812
aF77.222190856933594
aF157.49934387207031
aF43.193767547607422
aF10.256813049316406
aa(lp3
F70.099998474121094
aF66.700004577636719
aF30.357866287231445
aF1.897367000579834
aF18.434951782226562
aa(lp4
F60.500003814697266
aF99.000007629394531
aF8.5381488800048828
aF0.94868320226669312
aF18.434951782226562
aa(lp5
F69.932182312011719
aF134.73187255859375
aF27.28425407409668
aF4.6466631889343262
aF6.8427734375
aa(lp6
F75.750007629394531
aF4.7500004768371582
aF2.8284268379211426
aF0.70710670948028564
aF45
aa(lp7
F57.000003814697266
aF108.50001525878906
aF5.3665633201599121
aF0.4472135603427887
aF26.565048217773438
aa(lp8
F62.852951049804688
aF91.088241577148438
aF4.123105525970459
aF0.72760689258575439
aF14.036239624023438
aa(lp9
F74.612327575683594
aF23.467123031616211
aF29.017143249511719
aF1.8505831956863403
aF2.1211013793945312
aa.(lp1
(lp2
F63.238304138183594
aF77.327316284179688
aF152.8138427734375
aF18.397703170776367
aF4.9532546997070312
aa(lp3
F90.254264831542969
aF72.75732421875
aF144.75083923339844
aF15.404297828674316
aF14.813461303710938
aa(lp4
F70.598503112792969
aF65.190437316894531
aF33.525657653808594
aF2.1224253177642822
aF17.650115966796875
aa(lp5
F75.987236022949219
aF16.156192779541016
aF23.536159515380859
aF3.3243162631988525
aF12.804267883300781
aa(lp6
F68.600006103515625
aF146.30001831054688
aF4.4721360206604004
aF1.3416407108306885
aF26.565048217773438
aa(lp7
F60.150005340576172
aF100.05001831054688
aF18.973663330078125
aF0.94868320226669312
aF18.434951782226562
aa(lp8
F55.75
aF115.75000762939453
aF1.4142134189605713
aF0.70710670948028564
aF45
aa(lp9
F82.350006103515625
aF1.9499998092651367
aF0.94868320226669312
aF3.1622774600982666
aF108.43495178222656
aa(lp10
F99.160003662109375
aF6.3800039291381836
aF0.60000002384185791
aF6.4000000953674316
aF143.13010406494141
aa(lp11
F92.5
aF1.5
aF1
aF13
aF90
aa.(lp1
(lp2
F68.401596069335938
aF78.8118896484375
aF155.88278198242188
aF20.071470260620117
aF4.8566055297851562
aa(lp3
F99.95086669921875
aF63.606372833251953
aF124.52245330810547
aF18.982427597045898
aF10.762542724609375
aa(lp4
F83
aF6.4999985694885254
aF7.7781758308410645
aF0.70710688829421997
aF45
aa(lp5
F75.215423583984375
aF137.05723571777344
aF28.30955696105957
aF4.1866245269775391
aF4.5739212036132812
aa(lp6
F77.156578063964844
aF64.6998291015625
aF25.954978942871094
aF1.9549418687820435
aF16.927513122558594
aa(lp7
F63.000003814697266
aF111.00000762939453
aF4.4721360206604004
aF0.89442712068557739
aF26.565048217773438
aa(lp8
F65.500007629394531
aF104.00000762939453
aF4.0249223709106445
aF0.89442712068557739
aF26.565048217773438
aa(lp9
F80.839347839355469
aF20.138988494873047
aF23.537204742431641
aF3.3988742828369141
aF12.264778137207031
aa(lp10
F68.349998474121094
aF93.949996948242188
aF4.1109609603881836
aF0.63245546817779541
aF18.434951782226562
aa(lp11
F93.5
aF1.5
aF1
aF13
aF90
aa.(lp1
(lp2
F85.945281982421875
aF75.419601440429688
aF153.33680725097656
aF43.315093994140625
aF10.757972717285156
aa(lp3
F62.394157409667969
aF138.58392333984375
aF9.3979339599609375
aF37.933479309082031
aF160.01689338684082
aa(lp4
F76.949996948242188
aF68.650001525878906
aF28.46049690246582
aF1.5811386108398438
aF18.434951782226562
aa(lp5
F84.000007629394531
aF6.5000009536743164
aF7.7781744003295898
aF0.70710659027099609
aF45
aa(lp6
F81.219184875488281
aF21.917808532714844
aF20.099479675292969
aF1.6749566793441772
aF6.0090103149414062
aa(lp7
F68.800010681152344
aF96.099998474121094
aF8.5381488800048828
aF0.94868320226669312
aF18.434951782226562
aa(lp8
F66.349998474121094
aF103.95000457763672
aF4.1109609603881836
aF0.63245546817779541
aF18.434951782226562
aa(lp9
F86.346145629882812
aF8.7692356109619141
aF3.6055512428283691
aF0.55470019578933716
aF56.309932708740234
aa.(lp1
(lp2
F69.17327880859375
aF78.394615173339844
aF157.23159790039062
aF19.673324584960938
aF5.9315185546875
aa(lp3
F99.049087524414062
aF63.8643798828125
aF123.55549621582031
aF15.541316032409668
aF11.768287658691406
aa(lp4
F73.969230651855469
aF138.24615478515625
aF26.295364379882812
aF4.7133197784423828
aF7.1250152587890625
aa(lp5
F74.86846923828125
aF68.128166198730469
aF29.402599334716797
aF1.4783427715301514
aF19.179000854492188
aa(lp6
F62.200004577636719
aF110.60002136230469
aF5.3665633201599121
aF0.89442712068557739
aF26.565048217773438
aa(lp7
F81.250007629394531
aF7.2500009536743164
aF5.6568536758422852
aF0.70710670948028564
aF45
aa(lp8
F79.5018310546875
aF21.739446640014648
aF24.330450057983398
aF3.2126471996307373
aF9.865814208984375
aa(lp9
F95.5
aF1.5
aF1
aF13
aF90
aa(lp10
F64.350006103515625
aF103.95000457763672
aF4.1109609603881836
aF0.63245546817779541
aF18.434951782226562
aa(lp11
F67
aF95.000007629394531
aF6.2757163047790527
aF0.78446465730667114
aF11.309928894042969
aa.(lp1
(lp2
F72.146949768066406
aF76.625495910644531
aF159.8612060546875
aF25.929145812988281
aF11.813140869140625
aa(lp3
F93.5
aF75.000007629394531
aF146.24896240234375
aF16.977489471435547
aF14.036239624023438
aa(lp4
F78.993896484375
aF16.945121765136719
aF20.248456954956055
aF3.2101211547851562
aF20.224853515625
aa(lp5
F74.300010681152344
aF66.600006103515625
aF26.246902465820312
aF1.5811386108398438
aF18.434951782226562
aa(lp6
F71.220001220703125
aF149.53999328613281
aF5
aF1.8000000715255737
aF36.869899749755859
aa(lp7
F63.41845703125
aF103.14769744873047
aF18.970746994018555
aF1.220340371131897
aF19.440032958984375
aa(lp8
F59.250007629394531
aF119.25001525878906
aF1.4142134189605713
aF0.70710670948028564
aF45
aa(lp9
F80.153839111328125
aF6.7692317962646484
aF4.9923019409179688
aF1.1094005107879639
aF33.6900634765625
aa.(lp1
(lp2
F84.864799499511719
aF79.192390441894531
aF161.134033203125
aF43.494514465332031
aF10.653900146484375
aa(lp3
F82.163192749023438
aF18.845697402954102
aF25.961509704589844
aF4.8533382415771484
aF15.642242431640625
aa(lp4
F77.676475524902344
aF63.294120788574219
aF30.802024841308594
aF2.9104275703430176
aF14.036239624023438
aa(lp5
F63.5
aF110.00001525878906
aF4.0249223709106445
aF0.89442712068557739
aF26.565048217773438
aa(lp6
F83.250007629394531
aF6.2500009536743164
aF7.0710678100585938
aF0.70710676908493042
aF45
aa(lp7
F68.5
aF94.5
aF5.0596437454223633
aF0.63245546817779541
aF18.434951782226562
aa(lp8
F70.500007629394531
aF86.499992370605469
aF5.0596437454223633
aF0.63245546817779541
aF18.434951782226562
aa(lp9
F102.16000366210938
aF6.3800039291381836
aF0.60000002384185791
aF6.4000000953674316
aF143.13010406494141
aa.(lp1
(lp2
F78.26519775390625
aF77.599418640136719
aF158.46504211425781
aF43.003318786621094
aF10.162086486816406
aa(lp3
F76.250007629394531
aF5.2500009536743164
aF4.242640495300293
aF0.70710670948028564
aF45
aa(lp4
F57.800006866455078
aF105.60000610351562
aF9.4868316650390625
aF1.2649109363555908
aF18.434951782226562
aa(lp5
F70.402267456054688
aF63.767337799072266
aF34.197135925292969
aF2.6278173923492432
aF16.504364013671875
aa(lp6
F61.150005340576172
aF95.050010681152344
aF6.3245549201965332
aF0.94868320226669312
aF18.434951782226562
aa(lp7
F74.207923889160156
aF20.420791625976562
aF21.094789505004883
aF1.6915633678436279
aF5.7105941772460938
aa(lp8
F55.900012969970703
aF116.20001220703125
aF2.2360680103302002
aF0.89442712068557739
aF26.565048217773438
aa.(lp1
(lp2
F42.364875793457031
aF31.189184188842773
aF69.84539794921875
aF30.658454895019531
aF17.102729797363281
aa(lp3
F72.043182373046875
aF149.63909912109375
aF143.05964660644531
aF9.9070701599121094
aF3.1302413940429688
aa(lp4
F38.668312072753906
aF196.31683349609375
aF30.927091598510742
aF68.796096801757812
aF159.14554023742676
aa(lp5
F39.969997406005859
aF180.21000671386719
aF36.345287322998047
aF3.1112692356109619
aF8.1301040649414062
aa(lp6
F33.544002532958984
aF104.49199676513672
aF1.7888545989990234
aF14.936936378479004
aF169.69515419006348
aa(lp7
F14.426471710205078
aF98.544113159179688
aF36.872196197509766
aF9.2609243392944336
aF59.036237716674805
aa(lp8
F21.611465454101562
aF116.62101745605469
aF39.724674224853516
aF82.090522766113281
aF177.95459175109863
aa(lp9
F67.702598571777344
aF171.97222900390625
aF96.142158508300781
aF6.3324790000915527
aF5.3321533203125
aa(lp10
F29.460002899169922
aF79.780006408691406
aF5
aF1.8000000715255737
aF53.130104064941406
aa(lp11
F37.700004577636719
aF13.600001335144043
aF3.1304950714111328
aF0.89442712068557739
aF26.565048217773438
aa(lp12
F35
aF20.5
aF5.3665633201599121
aF0.4472135603427887
aF26.565048217773438
aa.(lp1
(lp2
F67.19879150390625
aF70.698974609375
aF149.63592529296875
aF32.517230987548828
aF13.937797546386719
aa(lp3
F91.3154296875
aF58.546234130859375
aF117.33780670166016
aF12.325142860412598
aF17.8018798828125
aa(lp4
F68.55029296875
aF56.1768798828125
aF31.620946884155273
aF2.108062744140625
aF17.818893432617188
aa(lp5
F55.199996948242188
aF99.600013732910156
aF5.3665633201599121
aF0.89442712068557739
aF26.565048217773438
aa(lp6
F57.350006103515625
aF92.950004577636719
aF4.1109609603881836
aF0.63245546817779541
aF18.434951782226562
aa(lp7
F59.850009918212891
aF85.449996948242188
aF7.2732377052307129
aF0.63245546817779541
aF18.434951782226562
aa(lp8
F61.852947235107422
aF77.088241577148438
aF4.123105525970459
aF0.72760689258575439
aF14.036239624023438
aa.(lp1
(lp2
F45.300003051757812
aF31.100009918212891
aF71.467460632324219
aF31.622774124145508
aF18.434951782226562
aa(lp3
F70.487380981445312
aF155.95271301269531
aF148.21348571777344
aF24.28944206237793
aF9.8490142822265625
aa(lp4
F29
aF126.49999237060547
aF27.891599655151367
aF68.395057678222656
aF165.96375560760498
aa(lp5
F38
aF193
aF12
aF66
aF180
aa(lp6
F39.960395812988281
aF95.896041870117188
aF38.209430694580078
aF3.6816377639770508
aF5.7105941772460938
aa(lp7
F37.700004577636719
aF23.600002288818359
aF3.1304950714111328
aF0.89442712068557739
aF26.565048217773438
aa(lp8
F33.853851318359375
aF82.869232177734375
aF8.0622568130493164
aF2.6047289371490479
aF60.255117416381836
aa.(lp1
(lp2
F61
aF74
aF20
aF146
aF180
aa(lp3
F91.5
aF57
aF112
aF37
aF0
aa(lp4
F71.089187622070312
aF54.335136413574219
aF27.202943801879883
aF2.2791657447814941
aF17.102729797363281
aa(lp5
F59.450008392333984
aF93.150009155273438
aF18.973663330078125
aF0.94868320226669312
aF18.434951782226562
aa(lp6
F55.250007629394531
aF108.25001525878906
aF1.4142134189605713
aF0.70710670948028564
aF45
aa.(lp1
(lp2
F67.044830322265625
aF137.26206970214844
aF20.141654968261719
aF35.526821136474609
aF176.63353943824768
aa(lp3
F100.18234252929688
aF63.374702453613281
aF123.78301239013672
aF19.556379318237305
aF8.9971389770507812
aa(lp4
F67.432548522949219
aF59.164680480957031
aF125.85491943359375
aF16.48011589050293
aF18.285346984863281
aa(lp5
F83.000007629394531
aF10.500001907348633
aF6.3639612197875977
aF0.70710670948028564
aF45
aa(lp6
F64.086204528808594
aF107.03448486328125
aF12.62728214263916
aF0.92847669124603271
aF21.801406860351562
aa(lp7
F67.650001525878906
aF96.050010681152344
aF4.1109609603881836
aF0.63245546817779541
aF18.434951782226562
aa(lp8
F79.5
aF23
aF1
aF16
aF180
aa.(lp1
(lp2
F81.979446411132812
aF78.811004638671875
aF160.31138610839844
aF42.353965759277344
aF10.491470336914062
aa(lp3
F80.250007629394531
aF6.2499971389770508
aF7.0710678100585938
aF0.70710676908493042
aF45
aa(lp4
F61.000003814697266
aF110.00000762939453
aF4.4721360206604004
aF0.89442712068557739
aF26.565048217773438
aa(lp5
F71.000007629394531
aF150.50001525878906
aF4.0249223709106445
aF0.89442712068557739
aF63.43494987487793
aa(lp6
F73.858497619628906
aF67.245285034179688
aF31.043483734130859
aF2.3351292610168457
aF15.945396423339844
aa(lp7
F77.776710510253906
aF21.371234893798828
aF19.104972839355469
aF2.4600925445556641
aF6.0090103149414062
aa(lp8
F65.500007629394531
aF96.5
aF5.0596437454223633
aF0.63245546817779541
aF18.434951782226562
aa.(lp1
(lp2
F70.152664184570312
aF78.082771301269531
aF157.73141479492188
aF21.528766632080078
aF6.666656494140625
aa(lp3
F98.431671142578125
aF63.174491882324219
aF123.117919921875
aF25.859445571899414
aF6.1322250366210938
aa(lp4
F75.116729736328125
aF136.69403076171875
aF29.389154434204102
aF4.7658095359802246
aF6.8427734375
aa(lp5
F76.440788269042969
aF64.774391174316406
aF25.959999084472656
aF2.2399997711181641
aF16.260208129882812
aa(lp6
F80.223075866699219
aF19.015388488769531
aF23.768268585205078
aF3.946760892868042
aF15.255119323730469
aa(lp7
F82.000007629394531
aF6.0000009536743164
aF7.0710678100585938
aF1.4142135381698608
aF45
aa(lp8
F62.700008392333984
aF110.60001373291016
aF3.1304950714111328
aF0.89442712068557739
aF26.565048217773438
aa(lp9
F65.000007629394531
aF104
aF4.4721360206604004
aF0.89442712068557739
aF26.565048217773438
aa.(lp1
(lp2
F83.518447875976562
aF78.562080383300781
aF159.88252258300781
aF43.504264831542969
aF10.007980346679688
aa(lp3
F79.231712341308594
aF20.914632797241211
aF20.098541259765625
aF1.7669044733047485
aF6.3401870727539062
aa(lp4
F65.000007629394531
aF104
aF4.4721360206604004
aF0.89442712068557739
aF26.565048217773438
aa(lp5
F76.827705383300781
aF61.809795379638672
aF31.779687881469727
aF2.9539854526519775
aF13.134017944335938
aa(lp6
F85.250007629394531
aF7.2500009536743164
aF4.242640495300293
aF0.70710670948028564
aF45
aa(lp7
F67.617660522460938
aF95.029426574707031
aF6.0633902549743652
aF0.72760689258575439
aF14.036239624023438
aa.(lp1
(lp2
F82.75836181640625
aF78.785118103027344
aF159.51310729980469
aF43.639659881591797
aF9.8192977905273438
aa(lp3
F74.5
aF136
aF3
aF24
aF180
aa(lp4
F76.038467407226562
aF58.807693481445312
aF37.654300689697266
aF3.53009033203125
aF11.309928894042969
aa(lp5
F63.700000762939453
aF104.60001373291016
aF3.1304950714111328
aF0.89442712068557739
aF26.565048217773438
aa(lp6
F81.000007629394531
aF5.500004768371582
aF4.9497470855712891
aF0.70710670948028564
aF45
aa(lp7
F61.500007629394531
aF110.50000762939453
aF3.1304950714111328
aF0.4472135603427887
aF26.565048217773438
aa(lp8
F65.5
aF97.5
aF5.0596437454223633
aF0.63245546817779541
aF18.434951782226562
aa(lp9
F77.68646240234375
aF22.457183837890625
aF19.026298522949219
aF1.6293239593505859
aF3.012786865234375
aa.(lp1
(lp2
F79.348670959472656
aF76.949287414550781
aF157.42965698242188
aF43.438758850097656
aF9.9127578735351562
aa(lp3
F69.813568115234375
aF134.79017639160156
aF27.608842849731445
aF5.3321795463562012
aF9.0902786254882812
aa(lp4
F70.950004577636719
aF64.150009155273438
aF31.306547164916992
aF1.8973664045333862
aF18.434951782226562
aa(lp5
F58.300003051757812
aF106.40000915527344
aF3.1304950714111328
aF0.89442712068557739
aF26.565048217773438
aa(lp6
F74.811882019042969
aF18.381187438964844
aF21.094789505004883
aF2.4875931739807129
aF5.7105941772460938
aa(lp7
F60.350009918212891
aF99.95001220703125
aF4.1109609603881836
aF0.63245546817779541
aF18.434951782226562
aa(lp8
F62.500007629394531
aF93.499992370605469
aF5.0596437454223633
aF0.63245546817779541
aF18.434951782226562
aa.(lp1
(lp2
F64
aF138.5
aF20
aF35
aF180
aa(lp3
F64.092147827148438
aF59.992908477783203
aF124.02769470214844
aF12.996536254882812
aF15.572540283203125
aa(lp4
F96.201156616210938
aF64.1663818359375
aF124.19744110107422
aF14.782915115356445
aF13.029197692871094
aa(lp5
F59.700008392333984
aF110.60000610351562
aF3.1304950714111328
aF0.89442712068557739
aF26.565048217773438
aa(lp6
F76.245735168457031
aF20.911262512207031
aF18.110393524169922
aF1.635777473449707
aF6.7098388671875
aa(lp7
F84.158538818359375
aF5.5731687545776367
aF6.4031243324279785
aF1.0932164192199707
aF51.340190887451172
aa(lp8
F95
aF1.5
aF1
aF12
aF90
aa(lp9
F77.384605407714844
aF7.9230713844299316
aF4.9923019409179688
aF0.55470025539398193
aF33.6900634765625
aa.(lp1
(lp2
F39.899997711181641
aF28.800003051757812
aF66.091598510742188
aF29.4091796875
aF18.434951782226562
aa(lp3
F58.190753936767578
aF148.26007080078125
aF149.32017517089844
aF41.359554290771484
aF8.7461624145507812
aa(lp4
F19.862173080444336
aF97.062705993652344
aF51.702232360839844
aF32.575523376464844
aF11.560134887695312
aa(lp5
F29.301095962524414
aF107.77770233154297
aF57.4718017578125
aF24.902122497558594
aF41.467704772949219
aa(lp6
F41.803253173828125
aF133.8050537109375
aF3.9499580860137939
aF40.198211669921875
aF173.82982492446899
aa(lp7
F33.600002288818359
aF205.20002746582031
aF5.3665633201599121
aF0.89442712068557739
aF63.43494987487793
aa.(lp1
(lp2
F93.252311706542969
aF61.836605072021484
aF118.86688232421875
aF20.830587387084961
aF9.78240966796875
aa(lp3
F56.0616455078125
aF135.16438293457031
aF8.8951282501220703
aF37.570209503173828
aF159.44395446777344
aa(lp4
F63.219207763671875
aF59.405445098876953
aF118.42452239990234
aF7.9927077293395996
aF10.353317260742188
aa(lp5
F70
aF131
aF4
aF22
aF180
aa(lp6
F69.450004577636719
aF65.649993896484375
aF34.468826293945312
aF1.897367000579834
aF18.434944152832031
aa(lp7
F59.300003051757812
aF99.400009155273438
aF3.1304950714111328
aF0.89442712068557739
aF26.565048217773438
aa(lp8
F74.839347839355469
aF15.138989448547363
aF23.537204742431641
aF3.3988742828369141
aF12.264778137207031
aa(lp9
F74.750007629394531
aF4.7500004768371582
aF1.4142134189605713
aF0.70710670948028564
aF45
aa(lp10
F83.5
aF1.5
aF1
aF15
aF90
aa(lp11
F66.950004577636719
aF146.34999084472656
aF4.1109609603881836
aF0.63245546817779541
aF71.565052032470703
aa(lp12
F57.200008392333984
aF106.10001373291016
aF4.4721360206604004
aF0.4472135603427887
aF26.565048217773438
aa(lp13
F61.650005340576172
aF92.049995422363281
aF4.1109609603881836
aF0.63245546817779541
aF18.434951782226562
aa.(lp1
(lp2
F78.837921142578125
aF76.809043884277344
aF157.57814025878906
aF43.626468658447266
aF10.684913635253906
aa(lp3
F74.166534423828125
aF38.953311920166016
aF71.403648376464844
aF5.8232097625732422
aF7.9696121215820312
aa(lp4
F57.5
aF108.00000762939453
aF2.1213202476501465
aF0.70710670948028564
aF45
aa(lp5
F75.750007629394531
aF4.7500004768371582
aF2.8284268379211426
aF0.70710670948028564
aF45
aa(lp6
F62.352951049804688
aF93.088249206542969
aF8.246211051940918
aF0.72760689258575439
aF14.036239624023438
aa(lp7
F66.200004577636719
aF77.400001525878906
aF3.1622774600982666
aF0.63245546817779541
aF18.434951782226562
aa.(lp1
(lp2
F44.341396331787109
aF148.10760498046875
aF11.671422958374023
aF80.024223327636719
aF178.3153156042099
aa(lp3
F54.200004577636719
aF41.900001525878906
aF94.552108764648438
aF33.836372375488281
aF18.434944152832031
aa(lp4
F79.647132873535156
aF178.55735778808594
aF143.0712890625
aF12.334590911865234
aF2.8624038696289062
aa(lp5
F42.650005340576172
aF44.550006866455078
aF9.4868316650390625
aF0.94868320226669312
aF18.434951782226562
aa(lp6
F45.882350921630859
aF34.970588684082031
aF6.3059263229370117
aF0.72760689258575439
aF14.036239624023438
aa.(lp1
(lp2
F51.037403106689453
aF98.248138427734375
aF20.224735260009766
aF37.553089141845703
aF177.13759469985962
aa(lp3
F77.943122863769531
aF42.336063385009766
aF30.900142669677734
aF82.957252502441406
aF179.30130565166473
aa(lp4
F49.696174621582031
aF41.434917449951172
aF82.460617065429688
aF3.9988431930541992
aF14.381393432617188
aa(lp5
F59.950000762939453
aF26.649997711181641
aF28.46049690246582
aF1.5811386108398438
aF18.434951782226562
aa(lp6
F46
aF78.5
aF1
aF2
aF90
aa(lp7
F48.264705657958984
aF64.441184997558594
aF5.0932478904724121
aF0.72760689258575439
aF14.036239624023438
aa(lp8
F52
aF52
aF8.2368783950805664
aF0.78446453809738159
aF11.309928894042969
aa.(lp1
(lp2
F78.566696166992188
aF77.446540832519531
aF158.56080627441406
aF43.441062927246094
aF10.684913635253906
aa(lp3
F70.569419860839844
aF65.831886291503906
aF30.364450454711914
aF2.2394602298736572
aF17.241462707519531
aa(lp4
F57.827583312988281
aF105.9310302734375
aF10.770329475402832
aF1.1141719818115234
aF21.801406860351562
aa(lp5
F74.758621215820312
aF21.896553039550781
aF24.08319091796875
aF2.4913644790649414
aF4.7636489868164062
aa(lp6
F77.500007629394531
aF5.0000009536743164
aF3.5355339050292969
aF0.70710670948028564
aF45
aa(lp7
F80.250007629394531
aF6.2500009536743164
aF1.4142134189605713
aF0.70710670948028564
aF45
aa(lp8
F62.350009918212891
aF92.949996948242188
aF4.1109609603881836
aF0.63245546817779541
aF18.434951782226562
aa.(lp1
(lp2
F51.034481048583984
aF37.413803100585938
aF87.648185729980469
aF33.796550750732422
aF21.801406860351562
aa(lp3
F75.634384155273438
aF175.6260986328125
aF148.59049987792969
aF28.382150650024414
aF11.8482666015625
aa(lp4
F38.675544738769531
aF71.283401489257812
aF8.718048095703125
aF37.620594024658203
aF161.02959251403809
aa(lp5
F41.678531646728516
aF129.81196594238281
aF11.146595001220703
aF55.387187957763672
aF175.33314180374146
aa(lp6
F27.702072143554688
aF148.36788940429688
aF35.476364135742188
aF63.368831634521484
aF165.25643730163574
aa(lp7
F77.44000244140625
aF144.91999816894531
aF1.6000001430511475
aF6.4000000953674316
aF143.13010406494141
aa(lp8
F41.172412872314453
aF39.568965911865234
aF9.8418521881103516
aF1.1141719818115234
aF21.801406860351562
aa(lp9
F50.327590942382812
aF8.4310340881347656
aF9.4704618453979492
aF0.92847669124603271
aF21.801406860351562
aa(lp10
F45
aF28.000003814697266
aF8.2219219207763672
aF0.63245546817779541
aF18.434951782226562
aa.(lp1
(lp2
F45.478183746337891
aF35.854106903076172
aF84.486923217773438
aF32.490371704101562
aF21.960563659667969
aa(lp3
F72.990097045898438
aF167.09901428222656
aF148.26206970214844
aF34.448135375976562
aF13.840690612792969
aa(lp4
F72.956382751464844
aF183.56289672851562
aF100.91342926025391
aF6.5516262054443359
aF3.7640380859375
aa(lp5
F39.999996185302734
aF164.49996948242188
aF13.999998092651367
aF140.99996948242188
aF180
aa(lp6
F49.5
aF57
aF3
aF24
aF180
aa(lp7
F38.580844879150391
aF112.50437164306641
aF41.210105895996094
aF3.2655026912689209
aF3.09405517578125
aa(lp8
F39.761543273925781
aF26.092309951782227
aF21.189546585083008
aF1.1648702621459961
aF19.440032958984375
aa(lp9
F36.069236755371094
aF111.9461669921875
aF8.0622577667236328
aF0.86824309825897217
aF7.1250152587890625
aa(lp10
F44.700008392333984
aF10.100002288818359
aF2.2360680103302002
aF0.4472135603427887
aF26.565048217773438
aa.(lp1
(lp2
F76.486282348632812
aF76.220634460449219
aF157.02827453613281
aF43.48870849609375
aF10.988655090332031
aa(lp3
F73.879173278808594
aF16.131631851196289
aF23.536159515380859
aF3.5459375381469727
aF12.804267883300781
aa(lp4
F68.989974975585938
aF64.171493530273438
aF29.401185989379883
aF1.7933309078216553
aF19.290046691894531
aa(lp5
F58.034526824951172
aF98.687088012695312
aF22.133474349975586
aF1.4629805088043213
aF19.290046691894531
aa.(lp1
(lp2
F31.826595306396484
aF31.468770980834961
aF14.720314979553223
aF57.96124267578125
aF167.82854080200195
aa(lp3
F71.134651184082031
aF142.84321594238281
aF143.22360229492188
aF12.28847599029541
aF3.2020187377929688
aa(lp4
F29.593452453613281
aF148.20901489257812
aF146.12760925292969
aF27.308917999267578
aF11.222457885742188
aa(lp5
F14.450002670288086
aF202.35002136230469
aF13.914021492004395
aF1.5811388492584229
aF71.565052032470703
aa(lp6
F44.872821807861328
aF38.543643951416016
aF20.973800659179688
aF2.7965066432952881
aF2.8624038696289062
aa(lp7
F34.453170776367188
aF90.99853515625
aF38.13763427734375
aF4.0292830467224121
aF1.7899093627929688
aa(lp8
F30.400009155273438
aF203.300048828125
aF5.813776969909668
aF0.89442712068557739
aF63.43494987487793
aa(lp9
F22.649997711181641
aF203.05003356933594
aF0.94868320226669312
aF3.1622774600982666
aF108.43495178222656
aa.(lp1
(lp2
F43.949615478515625
aF30.326200485229492
aF69.21002197265625
aF31.618793487548828
aF17.525566101074219
aa(lp3
F34.137077331542969
aF162.17044067382812
aF34.249622344970703
aF148.45832824707031
aF166.15379238128662
aa(lp4
F33.036491394042969
aF54.350360870361328
aF8.7144479751586914
aF38.616966247558594
aF160.01689529418945
aa(lp5
F74.2310791015625
aF155.06352233886719
aF144.03082275390625
aF9.9042987823486328
aF1.3322219848632812
aa(lp6
F69.847915649414062
aF178.05973815917969
aF95.9033203125
aF6.4488182067871094
aF4.0282669067382812
aa(lp7
F35.172603607177734
aF102.86027526855469
aF38.314628601074219
aF4.0827069282531738
aF6.0090103149414062
aa(lp8
F37.650005340576172
aF16.549999237060547
aF20.238576889038086
aF0.94868344068527222
aF18.434951782226562
aa.(lp1
(lp2
F77.234893798828125
aF75.72821044921875
aF156.24354553222656
aF43.549888610839844
aF10.256813049316406
aa(lp3
F69.542999267578125
aF60.688869476318359
aF26.240585327148438
aF1.80686354637146
aF19.179000854492188
aa(lp4
F58.745948791503906
aF95.575675964355469
aF17.718673706054688
aF1.0293006896972656
aF17.102729797363281
aa(lp5
F73.323081970214844
aF14.415386199951172
aF17.116792678833008
aF1.4884167909622192
aF7.1250152587890625
aa.