(lp1
(lp2
F136.30001831054688
aF99.400009155273438
aF3.1304950714111328
aF0.89442712068557739
aF26.565048217773438
aa(lp3
F53.5
aF148.5
aF9
aF1
aF90
aa(lp4
F126.60000610351562
aF88.199996948242188
aF0.63245546817779541
aF3.1622774600982666
aF108.43495178222656
aa(lp5
F75.053848266601562
aF84.069236755371094
aF0.86824309825897217
aF8.0622577667236328
aF97.125015258789062
aa(lp6
F93.110664367675781
aF84.71722412109375
aF12.041254043579102
aF2.5350008010864258
aF84.80557107925415
aa.(lp1
(lp2
F160.28158569335938
aF30.920881271362305
aF145.48860168457031
aF46.205287933349609
aF55.451633453369141
aa(lp3
F351.6126708984375
aF108.477294921875
aF30.525121688842773
aF129.02482604980469
aF179.38394016027451
aa(lp4
F216.39654541015625
aF10.241378784179688
aF12.070197105407715
aF1.8569533824920654
aF68.198593139648438
aa(lp5
F127.00001525878906
aF38
aF6.2609901428222656
aF0.89442706108093262
aF63.43494987487793
aa.(lp1
(lp2
F167.1827392578125
aF30.62310791015625
aF144.05917358398438
aF46.589931488037109
aF55.222171783447266
aa(lp3
F356.70315551757812
aF108.98677825927734
aF28.701564788818359
aF126.02536773681641
aF179.37040144205093
aa(lp4
F224.30003356933594
aF9.100001335144043
aF6.7082037925720215
aF1.341640830039978
aF63.43494987487793
aa(lp5
F351.25003051757812
aF167.25001525878906
aF1.4142134189605713
aF0.70710670948028564
aF45
aa(lp6
F346.66036987304688
aF153.68865966796875
aF7.2801089286804199
aF1.373605489730835
aF15.945396423339844
aa.(lp1
(lp2
F73.466361999511719
aF55.391040802001953
aF119.98250579833984
aF37.498435974121094
aF13.416183471679688
aa(lp3
F97.153846740722656
aF46.769222259521484
aF31.617912292480469
aF3.3282012939453125
aF33.6900634765625
aa(lp4
F67
aF37.000003814697266
aF6.2609901428222656
aF0.89442712068557739
aF26.565048217773438
aa(lp5
F69.70001220703125
aF30.600006103515625
aF3.1304950714111328
aF0.89442712068557739
aF26.565048217773438
aa(lp6
F104.00001525878906
aF137.50001525878906
aF2.2360677719116211
aF4.4721360206604004
aF153.43494987487793
aa(lp7
F30.426828384399414
aF146.84146118164062
aF3.0920829772949219
aF20.098541259765625
aF173.65980863571167
aa(lp8
F49.5
aF136.5
aF13
aF1
aF90
aa.(lp1
(lp2
F66.860748291015625
aF60.521778106689453
aF121.3740234375
aF36.717685699462891
aF3.45330810546875
aa(lp3
F29.952228546142578
aF58.836639404296875
aF120.39119720458984
aF5.9346599578857422
aF16.606979370117188
aa(lp4
F45.599998474121094
aF28.300004959106445
aF13.416407585144043
aF1.3416407108306885
aF26.565048217773438
aa(lp5
F41.150005340576172
aF38.050003051757812
aF4.4271879196166992
aF0.94868320226669312
aF18.434951782226562
aa.(lp1
(lp2
F77.456932067871094
aF57.11932373046875
aF120.73442077636719
aF38.262458801269531
aF12.724357604980469
aa(lp3
F99.17559814453125
aF50.142459869384766
aF26.627052307128906
aF4.0560250282287598
aF34.286876678466797
aa(lp4
F85.461540222167969
aF102.80767822265625
aF3.6055512428283691
aF1.1094005107879639
aF33.6900634765625
aa.(lp1
(lp2
F74.77447509765625
aF56.59490966796875
aF121.69075775146484
aF39.118671417236328
aF13.366928100585938
aa(lp3
F98.092308044433594
aF45.338462829589844
aF31.752887725830078
aF2.4806945323944092
aF29.744884490966797
aa(lp4
F82.230766296386719
aF102.15383911132812
aF4.4376015663146973
aF1.1094005107879639
aF33.690071105957031
aa(lp5
F36.930000305175781
aF151.510009765625
aF0.84852820634841919
aF9.1923885345458984
aF171.86989784240723
aa.(lp1
(lp2
F76.959556579589844
aF48.424724578857422
aF33.18487548828125
aF14.882913589477539
aF50.440334320068359
aa(lp3
F132.56596374511719
aF42.75750732421875
aF78.642219543457031
aF7.6608147621154785
aF12.200469970703125
aa(lp4
F48.795074462890625
aF84.745895385742188
aF2.1766271591186523
aF9.3466930389404297
aF129.80556869506836
aa(lp5
F77.420005798339844
aF66.94000244140625
aF15.811386108398438
aF3.7947323322296143
aF55.304843902587891
aa(lp6
F60.600002288818359
aF75.699996948242188
aF3.1304950714111328
aF0.89442712068557739
aF63.43494987487793
aa(lp7
F98.5
aF39
aF2
aF1
aF0
aa(lp8
F62.613208770751953
aF78.603775024414062
aF0.82416325807571411
aF7.2801089286804199
aF105.94539642333984
aa(lp9
F41.950000762939453
aF65.650001525878906
aF0.63245546817779541
aF4.1109609603881836
aF108.43495178222656
aa(lp10
F97.25
aF22.749994277954102
aF42.426410675048828
aF3.535534143447876
aF8.1301040649414062
aa.(lp1
(lp2
F92.56884765625
aF77.996742248535156
aF16.068696975708008
aF64.194122314453125
aF107.85031890869141
aa(lp3
F126.962646484375
aF42.461765289306641
aF69.632484436035156
aF6.580848217010498
aF11.97613525390625
aa(lp4
F73.400001525878906
aF62.299999237060547
aF13.863621711730957
aF1.7888544797897339
aF63.43494987487793
aa(lp5
F48.75
aF56.750003814697266
aF4.242640495300293
aF0.70710670948028564
aF45
aa(lp6
F77.3800048828125
aF75.660003662109375
aF1
aF5.8000006675720215
aF126.86989974975586
aa.(lp1
(lp2
F124.47507476806641
aF40.804943084716797
aF74.329345703125
aF7.5725007057189941
aF11.1546630859375
aa(lp3
F69.464149475097656
aF63.824527740478516
aF16.278820037841797
aF4.545783519744873
aF47.489551544189453
aa(lp4
F75.807693481445312
aF76.538459777832031
aF1.1094005107879639
aF3.6055512428283691
aF123.6900634765625
aa(lp5
F88.75
aF28.750001907348633
aF1.4142134189605713
aF0.70710670948028564
aF45
aa(lp6
F92.977157592773438
aF81.819793701171875
aF0.9262116551399231
aF18.025503158569336
aF94.085617065429688
aa(lp7
F90.5
aF23.500001907348633
aF3.1304950714111328
aF0.4472135603427887
aF26.565048217773438
aa.(lp1
(lp2
F72.237930297851562
aF46.455165863037109
aF27.986330032348633
aF14.44991397857666
aF48.366466522216797
aa(lp3
F126.50706481933594
aF41.820816040039062
aF76.293327331542969
aF7.6893215179443359
aF11.0035400390625
aa(lp4
F72.900009155273438
aF75.700004577636719
aF1.3416404724121094
aF13.863621711730957
aF116.56504821777344
aa(lp5
F71.600006103515625
aF64.200019836425781
aF13.416407585144043
aF1.7888542413711548
aF63.43494987487793
aa(lp6
F60.900009155273438
aF88.300010681152344
aF2.2360680103302002
aF0.4472135603427887
aF63.43494987487793
aa(lp7
F90.5
aF82.5
aF13
aF1
aF90
aa.(lp1
(lp2
F105.32475280761719
aF43.110496520996094
aF93.734954833984375
aF52.850059509277344
aF9.7524185180664062
aa(lp3
F68.003181457519531
aF64.089164733886719
aF12.529965400695801
aF2.0750260353088379
aF61.389537811279297
aa(lp4
F50
aF87
aF1.1141719818115234
aF8.1705951690673828
aF111.80140686035156
aa(lp5
F84.699996948242188
aF35.600002288818359
aF3.1304950714111328
aF0.89442712068557739
aF26.565048217773438
aa(lp6
F68
aF74.5
aF1
aF2
aF90
aa(lp7
F90.963417053222656
aF82.670730590820312
aF16.123003005981445
aF0.88345223665237427
aF83.659808158874512
aa.(lp1
(lp2
F62.6351318359375
aF67.310813903808594
aF13.89555835723877
aF9.0431413650512695
aF17.102729797363281
aa(lp3
F118.90384674072266
aF41.480766296386719
aF73.543556213378906
aF6.6679487228393555
aF11.309928894042969
aa.(lp1
(lp2
F61.5
aF32.5
aF35
aF63
aF180
aa(lp3
F32.634010314941406
aF113.03142547607422
aF14.101821899414062
aF46.518814086914062
aF154.53665351867676
aa(lp4
F76.350906372070312
aF28.069145202636719
aF36.043239593505859
aF5.7034158706665039
aF1.6846847534179688
aa(lp5
F53.579216003417969
aF134.73345947265625
aF100.47464752197266
aF9.3741817474365234
aF4.4556045532226562
aa(lp6
F74
aF135.5
aF16
aF101
aF180
aa.(lp1
(lp2
F361.86328125
aF90.007194519042969
aF179.73677062988281
aF29.132394790649414
aF2.9273452758789062
aa(lp3
F398.59991455078125
aF80.468864440917969
aF169.45207214355469
aF13.421323776245117
aF19.573127746582031
aa(lp4
F362.0113525390625
aF86.175315856933594
aF40.162166595458984
aF1.7027026414871216
aF18.924644470214844
aa(lp5
F379.76278686523438
aF29.777376174926758
aF36.993686676025391
aF2.3067655563354492
aF19.983108520507812
aa(lp6
F373.8902587890625
aF166.48780822753906
aF6.4031243324279785
aF1.2493901252746582
aF51.340190887451172
aa.(lp1
(lp2
F42
aF88.5
aF20
aF57
aF180
aa(lp3
F17.401281356811523
aF87.189285278320312
aF15.445245742797852
aF43.391487121582031
aF160.2531623840332
aa(lp4
F14.205883979797363
aF77.323532104492188
aF1.6977493762969971
aF5.0932478904724121
aF165.96375560760498
aa(lp5
F19
aF61.5
aF4
aF1
aF90
aa(lp6
F51.964607238769531
aF67.469032287597656
aF0.93126600980758667
aF15.033293724060059
aF176.18592500686646
aa.(lp1
(lp2
F357.48822021484375
aF92.152931213378906
aF184.60845947265625
aF25.233146667480469
aF4.398712158203125
aa(lp3
F404.1605224609375
aF62.994712829589844
aF130.54446411132812
aF8.2858428955078125
aF22.211822509765625
aa(lp4
F374.54513549804688
aF145.40284729003906
aF46.383296966552734
aF7.9036774635314941
aF6.4830780029296875
aa(lp5
F373.59243774414062
aF38.031875610351562
aF58.48272705078125
aF2.3797321319580078
aF19.025604248046875
aa(lp6
F368
aF177
aF14
aF6
aF0
aa(lp7
F357.9329833984375
aF88.652130126953125
aF41.104263305664062
aF1.5809335708618164
aF19.358993530273438
aa(lp8
F349
aF116.00000762939453
aF4.242640495300293
aF1.4142134189605713
aF45
aa(lp9
F350.60000610351562
aF111.80001068115234
aF3.1622774600982666
aF0.63245546817779541
aF71.565052032470703
aa.(lp1
(lp2
F357.644775390625
aF88.442161560058594
aF176.56642150878906
aF28.237817764282227
aF3.2397003173828125
aa(lp3
F403.48931884765625
aF62.659103393554688
aF130.53060913085938
aF9.0762538909912109
aF21.194053649902344
aa(lp4
F373.90924072265625
aF145.66427612304688
aF47.231254577636719
aF6.7570395469665527
aF3.9004974365234375
aa(lp5
F374.60000610351562
aF32.70001220703125
aF49.015300750732422
aF2.8460500240325928
aF18.434951782226562
aa(lp6
F354.51724243164062
aF96.206878662109375
aF21.540658950805664
aF1.1141719818115234
aF21.801406860351562
aa(lp7
F349.23077392578125
aF114.65383911132812
aF6.3790526390075684
aF1.6641006469726562
aF33.6900634765625
aa(lp8
F361.00003051757812
aF77.5
aF13.597792625427246
aF0.94868320226669312
aF18.434951782226562
aa(lp9
F364.73529052734375
aF63.558830261230469
aF11.399173736572266
aF0.72760689258575439
aF14.036239624023438
aa.(lp1
(lp2
F355.09091186523438
aF88.9898681640625
aF177.552490234375
aF28.993564605712891
aF3.103363037109375
aa(lp3
F390.98446655273438
aF84.438972473144531
aF178.00654602050781
aF13.328653335571289
aF19.384521484375
aa(lp4
F372.89999389648438
aF30.800003051757812
aF47.117931365966797
aF2.8460495471954346
aF18.434951782226562
aa(lp5
F352
aF96.5
aF22.469135284423828
aF1.1141719818115234
aF21.801406860351562
aa(lp6
F360.09844970703125
aF72.525917053222656
aF23.769672393798828
aF1.1706689596176147
aF14.743560791015625
aa.(lp1
(lp2
F353.521484375
aF89.435302734375
aF178.60308837890625
aF28.138805389404297
aF3.084808349609375
aa(lp3
F399.45257568359375
aF63.869602203369141
aF132.03202819824219
aF8.1660575866699219
aF21.637939453125
aa(lp4
F369.66397094726562
aF147.19671630859375
aF46.263759613037109
aF7.3333945274353027
aF5.194427490234375
aa(lp5
F370.8818359375
aF33.286605834960938
aF48.074771881103516
aF2.7579994201660156
aF18.004158020019531
aa(lp6
F353.30856323242188
aF89.113128662109375
aF36.052848815917969
aF1.5960899591445923
aF20.136306762695312
aa.(lp1
(lp2
F351.11251831054688
aF91.166709899902344
aF181.47244262695312
aF28.342578887939453
aF2.1475906372070312
aa(lp3
F396.35159301757812
aF63.048603057861328
aF130.54458618164062
aF8.6277265548706055
aF21.903175354003906
aa(lp4
F367.09384155273438
aF147.24127197265625
aF46.450618743896484
aF7.9192981719970703
aF5.314544677734375
aa(lp5
F348.24951171875
aF95.595046997070312
aF28.791122436523438
aF1.2459838390350342
aF20.854461669921875
aa(lp6
F366.20269775390625
aF38.716213226318359
aF63.301979064941406
aF3.1614222526550293
aF17.102729797363281
aa(lp7
F343.25003051757812
aF115.75001525878906
aF0.70710670948028564
aF1.4142134189605713
aF135
aa(lp8
F355.11767578125
aF76.029411315917969
aF8.246211051940918
aF0.72760689258575439
aF14.036239624023438
aa.(lp1
(lp2
F343.69863891601562
aF151.36302185058594
aF15.098309516906738
aF63.436309814453125
aF159.44395446777344
aa(lp3
F395.59735107421875
aF63.673736572265625
aF131.67333984375
aF9.1148624420166016
aF20.754074096679688
aa(lp4
F366.718994140625
aF146.7861328125
aF47.258110046386719
aF7.2823967933654785
aF5.0796051025390625
aa(lp5
F353.08737182617188
aF60.951328277587891
aF123.48827362060547
aF4.1021308898925781
aF15.871177673339844
aa(lp6
F365.83016967773438
aF37.607086181640625
aF61.366725921630859
aF2.7251243591308594
aF17.969139099121094
aa(lp7
F350.14324951171875
aF88.550834655761719
aF36.997886657714844
aF1.2464370727539062
aF19.536651611328125
aa.(lp1
(lp2
F350.4405517578125
aF89.4766845703125
aF178.64280700683594
aF27.979503631591797
aF2.9780197143554688
aa(lp3
F396.30233764648438
aF62.976940155029297
aF129.80754089355469
aF8.1582317352294922
aF21.227653503417969
aa(lp4
F359.50213623046875
aF57.9598388671875
aF103.44522094726562
aF3.4345149993896484
aF17.020530700683594
aa(lp5
F366.72293090820312
aF145.74203491210938
aF47.346645355224609
aF7.2823967933654785
aF5.0796051025390625
aa.(lp1
(lp2
F348.7369384765625
aF90.550872802734375
aF180.66050720214844
aF28.972026824951172
aF2.7758026123046875
aa(lp3
F394.25436401367188
aF63.085060119628906
aF132.20257568359375
aF8.6556196212768555
aF21.501434326171875
aa(lp4
F364.96234130859375
aF146.20668029785156
aF46.166847229003906
aF6.7278323173522949
aF3.99090576171875
aa(lp5
F366.56466674804688
aF30.829547882080078
aF46.831745147705078
aF3.1160516738891602
aF17.198539733886719
aa(lp6
F351.07781982421875
aF80.183868408203125
aF52.194339752197266
aF2.1657404899597168
aF17.650115966796875
aa(lp7
F341.5
aF108.00000762939453
aF2.1213202476501465
aF0.70710670948028564
aF45
aa.(lp1
(lp2
F340.45327758789062
aF149.66329956054688
aF14.709693908691406
aF61.896213531494141
aF159.10223579406738
aa(lp3
F392.86788940429688
aF63.308197021484375
aF130.73970031738281
aF7.5881571769714355
aF21.227653503417969
aa(lp4
F350.126220703125
aF59.960533142089844
aF121.56471252441406
aF4.3425078392028809
aF15.811370849609375
aa(lp5
F363.97479248046875
aF146.20281982421875
aF46.165546417236328
aF6.8250637054443359
aF3.9004974365234375
aa(lp6
F347.5496826171875
aF87.688461303710938
aF38.891891479492188
aF1.8108106851577759
aF18.924652099609375
aa(lp7
F362.6422119140625
aF37.192657470703125
aF62.067142486572266
aF3.2566099166870117
aF16.699241638183594
aa(lp8
F340.25003051757812
aF115.75001525878906
aF0.70710670948028564
aF1.4142134189605713
aF135
aa(lp9
F337.7000732421875
aF117.10001373291016
aF2.2360680103302002
aF0.4472135603427887
aF26.565048217773438
aa.(lp1
(lp2
F346.03500366210938
aF93.165237426757812
aF186.38414001464844
aF24.962577819824219
aF3.99090576171875
aa(lp3
F393.11700439453125
aF63.194843292236328
aF130.382080078125
aF7.3921566009521484
aF20.973495483398438
aa(lp4
F362.7667236328125
aF154.87727355957031
aF61.52154541015625
aF9.0525846481323242
aF7.765167236328125
aa(lp5
F363.085693359375
aF34.689502716064453
aF46.816665649414062
aF2.7144150733947754
aF17.92791748046875
aa(lp6
F344.60955810546875
aF97.041091918945312
aF21.1844482421875
aF1.1704113483428955
aF20.556045532226562
aa(lp7
F350.61764526367188
aF78.529411315917969
aF13.339459419250488
aF0.9701424241065979
aF14.036239624023438
aa(lp8
F354.2115478515625
aF63.942306518554688
aF6.0795998573303223
aF0.78446453809738159
aF11.309928894042969
aa.