(lp1
(lp2
F213.5
aF266.5
aF87
aF33
aF90
aa.(lp1
(lp2
F205.5
aF265.5
aF67
aF33
aF90
aa(lp3
F264.69512939453125
aF327.74392700195312
aF36.842311859130859
aF20.544775009155273
aF69.775140762329102
aa(lp4
F383.10000610351562
aF353.30001831054688
aF16.546901702880859
aF36.224300384521484
aF116.56504821777344
aa.(lp1
(lp2
F260.6414794921875
aF329.24526977539062
aF28.845714569091797
aF18.681035995483398
aF74.054604530334473
aa(lp3
F364.5
aF338.5
aF27
aF15
aF90
aa(lp4
F216.09173583984375
aF265.31222534179688
aF9.7140331268310547
aF20.881868362426758
aF97.594642639160156
aa(lp5
F211.82305908203125
aF260.81539916992188
aF38.327430725097656
aF67.445747375488281
aF105.25511932373047
aa.(lp1
(lp2
F209.42999267578125
aF263.37936401367188
aF37.614109039306641
aF18.651107788085938
aF86.423665523529053
aa.(lp1
(lp2
F364.88357543945312
aF343.85617065429688
aF31.71815299987793
aF15.332389831542969
aF69.443954467773438
aa(lp3
F317
aF260.5
aF10
aF19
aF180
aa(lp4
F190.85366821289062
aF270.81704711914062
aF24.184507369995117
aF68.577987670898438
aF96.340187072753906
aa(lp5
F203.72927856445312
aF253.53056335449219
aF18.965494155883789
aF59.473670959472656
aF97.594642639160156
aa.(lp1
(lp2
F382.72622680664062
aF337.86648559570312
aF13.655256271362305
aF25.359762191772461
aF109.65382385253906
aa(lp3
F218.5369873046875
aF265.3387451171875
aF32.853267669677734
aF56.731723785400391
aF112.38013458251953
aa.(lp1
(lp2
F265.5
aF327.5
aF37
aF21
aF90
aa(lp3
F191.27764892578125
aF267.15655517578125
aF27.25639533996582
aF55.777378082275391
aF96.483078002929688
aa.(lp1
(lp2
F197.88685607910156
aF270.8138427734375
aF81.762031555175781
aF35.114097595214844
aF70.01689338684082
aa.(lp1
(lp2
F203.65841674804688
aF263.41586303710938
aF37.313892364501953
aF90.946388244628906
aF95.710594177246094
aa(lp3
F265.44921875
aF326.789306640625
aF33.984844207763672
aF19.165456771850586
aF85.914383411407471
aa.(lp1
(lp2
F215.95497131347656
aF266.48220825195312
aF55.962730407714844
aF31.533178329467773
aF85.030259609222412
aa.(lp1
(lp2
F210.41331481933594
aF261.42025756835938
aF67.150070190429688
aF35.344333648681641
aF87.61405611038208
aa.(lp1
(lp2
F237.20588684082031
aF389.32354736328125
aF13.824529647827148
aF23.52595329284668
aF165.96375560760498
aa(lp3
F198.45783996582031
aF266.87060546875
aF28.736228942871094
aF78.03692626953125
aF101.68936920166016
aa.(lp1
(lp2
F248.30000305175781
aF261.89999389648438
aF23.70231819152832
aF15.652474403381348
aF26.565048217773438
aa.(lp1
(lp2
F202.14431762695312
aF265.60870361328125
aF55.069908142089844
aF23.244655609130859
aF73.009176254272461
aa.(lp1
(lp2
F200
aF264
aF40
aF22
aF90
aa(lp3
F264.5
aF328.5
aF29.698484420776367
aF18.384775161743164
aF45
aa.(lp1
(lp2
F265.5303955078125
aF328.03277587890625
aF37.799999237060547
aF21.079999923706055
aF73.739795684814453
aa(lp3
F371
aF348
aF28
aF12
aF90
aa.(lp1
(lp2
F232.34872436523438
aF259.964599609375
aF63.880943298339844
aF23.810590744018555
aF76.607503890991211
aa.(lp1
(lp2
F375.5
aF366.5
aF12.279438018798828
aF21.954147338867188
aF97.125015258789062
aa(lp3
F367.5
aF337
aF25
aF14
aF90
aa.(lp1
(lp2
F218.16575622558594
aF260.350830078125
aF82.028152465820312
aF33.355506896972656
aF81.702854156494141
aa(lp3
F364.37527465820312
aF349.866943359375
aF38.847854614257812
aF20.199060440063477
aF46.847610473632812
aa(lp4
F315
aF258.5
aF10
aF19
aF180
aa.(lp1
(lp2
F223.82218933105469
aF262.72088623046875
aF86.051589965820312
aF27.141002655029297
aF88.237609028816223
aa(lp3
F382.75
aF345.75
aF25.455844879150391
aF44.547725677490234
aF135
aa(lp4
F255.89869689941406
aF332.15155029296875
aF38.044269561767578
aF19.2838134765625
aF40.100902557373047
aa.(lp1
(lp2
F213.50001525878906
aF265.5
aF23.207210540771484
aF42.983787536621094
aF109.65382385253906
aa(lp3
F363.84243774414062
aF343.47860717773438
aF36.054649353027344
aF22.892831802368164
aF86.423665523529053
aa(lp4
F261
aF328
aF28
aF18
aF90
aa(lp5
F171.89654541015625
aF266.74142456054688
aF13.785550117492676
aF26.325420379638672
aF94.763648986816406
aa.(lp1
(lp2
F210.80769348144531
aF262.03851318359375
aF62.364925384521484
aF29.809648513793945
aF78.690067291259766
aa(lp3
F261.5
aF328
aF29
aF18
aF90
aa.(lp1
(lp2
F246.64389038085938
aF265.50485229492188
aF54.547409057617188
aF24.724433898925781
aF77.905242919921875
aa(lp3
F184.5
aF265.5
aF47
aF21
aF90
aa(lp4
F198.4000244140625
aF255.80000305175781
aF0.63245546817779541
aF3.1622774600982666
aF108.43495178222656
aa.(lp1
(lp2
F364.74740600585938
aF341.0401611328125
aF32.575141906738281
aF16.745656967163086
aF75.256437301635742
aa(lp3
F237.8599853515625
aF392.51998901367188
aF14.566399574279785
aF25.314424514770508
aF171.86989688873291
aa.(lp1
(lp2
F211.52964782714844
aF266.686767578125
aF65.654487609863281
aF34.239303588867188
aF88.567903876304626
aa.(lp1
(lp2
F386.88461303710938
aF374.57693481445312
aF15.689291954040527
aF35.300907135009766
aF101.30992889404297
aa(lp3
F246.5
aF261.5
aF21
aF13
aF90
aa.(lp1
(lp2
F192.40768432617188
aF267.83847045898438
aF63.402233123779297
aF29.232700347900391
aF86.820169925689697
aa(lp3
F204.61959838867188
aF275.43087768554688
aF8.3802042007446289
aF36.121570587158203
aF95.527542114257812
aa.(lp1
(lp2
F216.02711486816406
aF264.63714599609375
aF82.180938720703125
aF29.717782974243164
aF87.563351631164551
aa.(lp1
(lp2
F237.30003356933594
aF262.10003662109375
aF0.4472135603427887
aF2.2360680103302002
aF153.43494987487793
aa.(lp1
(lp2
F202.84793090820312
aF265.54498291015625
aF71.450965881347656
aF38.219558715820312
aF86.054814100265503
aa.(lp1
(lp2
F264
aF333.5
aF38
aF25
aF90
aa(lp3
F239.70770263671875
aF392.16156005859375
aF15.00820255279541
aF26.047292709350586
aF172.87498331069946
aa(lp4
F379.85293579101562
aF342.0882568359375
aF14.309601783752441
aF25.466241836547852
aF104.03623962402344
aa(lp5
F220.95523071289062
aF266.92080688476562
aF32.349372863769531
aF70.6439208984375
aF96.072463989257812
aa.(lp1
(lp2
F261.49777221679688
aF330.22357177734375
aF45.650577545166016
aF23.939296722412109
aF58.570436477661133
aa(lp3
F164.45266723632812
aF265.3135986328125
aF14.538463592529297
aF24.923080444335938
aF112.61986541748047
aa.(lp1
(lp2
F264.82000732421875
aF323.739990234375
aF40.600006103515625
aF26.600004196166992
aF36.869899749755859
aa(lp3
F171.57473754882812
aF262.03915405273438
aF29.350259780883789
aF18.194774627685547
aF72.645975112915039
aa(lp4
F381.39187622070312
aF374.351318359375
aF26.632637023925781
aF13.645115852355957
aF80.537677764892578
aa(lp5
F362.82693481445312
aF351.13461303710938
aF10.52469539642334
aF27.978147506713867
aF105.25511932373047
aa(lp6
F366.52944946289062
aF338.88238525390625
aF12.611852645874023
aF29.104274749755859
aF104.03623962402344
aa.(lp1
(lp2
F199.95655822753906
aF263.04165649414062
aF38.629554748535156
aF82.151626586914062
aF91.218864440917969
aa.(lp1
(lp2
F198.99996948242188
aF264.5
aF85.999984741210938
aF32.999992370605469
aF90
aa(lp3
F266.96713256835938
aF328.78466796875
aF42.803318023681641
aF27.254009246826172
aF70.016895294189453
aa(lp4
F241.9154052734375
aF393.32305908203125
aF13.643820762634277
aF23.194496154785156
aF172.87498331069946
aa.(lp1
(lp2
F228.98188781738281
aF258.5311279296875
aF49.371692657470703
aF22.80259895324707
aF75.256437301635742
aa(lp3
F267.5
aF327
aF33
aF18
aF90
aa.(lp1
(lp2
F223
aF266.5
aF46
aF27
aF90
aa(lp3
F382.057373046875
aF370.86886596679688
aF39.947505950927734
aF24.967193603515625
aF50.194431304931641
aa(lp4
F175.4315185546875
aF263.65066528320312
aF33.590808868408203
aF21.886693954467773
aF69.443954467773438
aa(lp5
F268
aF328
aF32
aF16
aF90
aa.(lp1
(lp2
F213.52964782714844
aF262.33602905273438
aF24.655220031738281
aF109.00347900390625
aF90.784820556640625
aa(lp3
F264.70687866210938
aF327.9827880859375
aF40.775333404541016
aF25.827144622802734
aF48.366466522216797
aa(lp4
F265
aF249
aF20
aF12
aF90
aa.(lp1
(lp2
F213.55203247070312
aF260.14212036132812
aF105.28926086425781
aF32.953773498535156
aF89.181544482707977
aa(lp3
F389.25863647460938
aF346.60345458984375
aF25.133028030395508
aF13.623509407043457
aF3.366455078125
aa.(lp1
(lp2
F358.38824462890625
aF341.7529296875
aF22.99462890625
aF14.968203544616699
aF12.52880859375
aa(lp3
F239.08106994628906
aF394.98648071289062
aF12.329923629760742
aF20.714271545410156
aF170.53767776489258
aa.(lp1
(lp2
F227.34072875976562
aF266.61065673828125
aF33.207447052001953
aF17.121120452880859
aF41.185924530029297
aa(lp3
F390.68106079101562
aF375.07763671875
aF20.089887619018555
aF13.393258094787598
aF23.198593139648438
aa.(lp1
(lp2
F191.7955322265625
aF266.91024780273438
aF67.715408325195312
aF33.258453369140625
aF87.137594699859619
aa(lp3
F259.70156860351562
aF332.61138916015625
aF37.236392974853516
aF22.300634384155273
aF55.491477966308594
aa(lp4
F376.42449951171875
aF343.23587036132812
aF28.441864013671875
aF18.121706008911133
aF47.489551544189453
aa.(lp1
(lp2
F260.46401977539062
aF332.44802856445312
aF40.224163055419922
aF20.618047714233398
aF55.304843902587891
aa(lp3
F370.13848876953125
aF333.392333984375
aF11.163125991821289
aF22.94642448425293
aF97.125015258789062
aa.(lp1
(lp2
F256.0723876953125
aF332.73098754882812
aF41.522747039794922
aF21.840963363647461
aF41.633537292480469
aa.(lp1
(lp2
F207
aF262.5
aF100
aF37
aF90
aa.(lp1
(lp2
F200.50820922851562
aF263.0902099609375
aF87.185920715332031
aF33.769832611083984
aF84.80557107925415
aa(lp3
F383.75
aF354.25
aF13.435028076171875
aF26.87005615234375
aF135
aa.(lp1
(lp2
F259.84567260742188
aF329.83676147460938
aF31.376718521118164
aF14.925731658935547
aF60.642244338989258
aa.(lp1
(lp2
F214.13249206542969
aF264.2095947265625
aF52.288089752197266
aF23.413644790649414
aF87.954591512680054
aa(lp3
F264.00003051757812
aF329.50003051757812
aF45.961936950683594
aF26.16295051574707
aF45
aa(lp4
F366.54995727539062
aF344.8499755859375
aF32.80975341796875
aF18.526199340820312
aF81.869897842407227
aa.(lp1
(lp2
F224.13966369628906
aF263.17047119140625
aF27.873134613037109
aF76.217620849609375
aF100.43747711181641
aa(lp3
F269.48077392578125
aF328.09613037109375
aF32.801967620849609
aF18.856746673583984
aF74.744879722595215
aa(lp4
F242.35598754882812
aF393.70797729492188
aF13.863624572753906
aF23.881208419799805
aF169.69515419006348
aa.(lp1
(lp2
F207
aF262.5
aF68
aF37
aF90
aa(lp3
F263.31484985351562
aF330.80120849609375
aF42.920692443847656
aF26.520772933959961
aF38.290164947509766
aa.(lp1
(lp2
F373.68081665039062
aF346.94528198242188
aF22.866434097290039
aF48.070205688476562
aF99.727577209472656
aa(lp3
F317
aF256.5
aF10
aF17
aF180
aa(lp4
F205.14334106445312
aF267.66714477539062
aF98.4403076171875
aF39.692058563232422
aF88.854237079620361
aa.(lp1
(lp2
F209.62249755859375
aF262.1392822265625
aF30.412431716918945
aF57.117443084716797
aF100.00798034667969
aa.(lp1
(lp2
F200.85296630859375
aF261.91180419921875
aF85.615074157714844
aF34.197521209716797
aF75.96375560760498
aa(lp3
F259.30001831054688
aF333.60000610351562
aF37.565940856933594
aF23.70231819152832
aF63.43494987487793
aa.(lp1
(lp2
F197.85565185546875
aF266.81982421875
aF33.533538818359375
aF77.535446166992188
aF92.489555358886719
aa.(lp1
(lp2
F183.96107482910156
aF273.81594848632812
aF21.035158157348633
aF56.710796356201172
aF104.62087249755859
aa(lp3
F216.82046508789062
aF261.59100341796875
aF29.563070297241211
aF99.975112915039062
aF92.862403869628906
aa.(lp1
(lp2
F261.6153564453125
aF329.42303466796875
aF41.047813415527344
aF16.918355941772461
aF56.3099365234375
aa.(lp1
(lp2
F260.00003051757812
aF331.50003051757812
aF45.961936950683594
aF26.16295051574707
aF45
aa(lp3
F377.46224975585938
aF374.63204956054688
aF12.225088119506836
aF22.66448974609375
aF105.94539642333984
aa(lp4
F209.10002136230469
aF261.70001220703125
aF64.845970153808594
aF25.491172790527344
aF63.43494987487793
aa.(lp1
(lp2
F256.43258666992188
aF334.79214477539062
aF43.989913940429688
aF21.305959701538086
aF57.994613647460938
aa(lp3
F207.76838684082031
aF268.0189208984375
aF66.735000610351562
aF34.085079193115234
aF82.724995136260986
aa.(lp1
(lp2
F186
aF265.5
aF32
aF21
aF90
aa(lp3
F366.55661010742188
aF337.1981201171875
aF25.411701202392578
aF13.873414993286133
aF74.054604530334473
aa(lp4
F235.39508056640625
aF395.55410766601562
aF15.746454238891602
aF30.805789947509766
aF166.75947952270508
aa.(lp1
(lp2
F157.46134948730469
aF266.89950561523438
aF34.246601104736328
aF20.820783615112305
aF68.962488174438477
aa(lp3
F380.98190307617188
aF372.380126953125
aF15.886760711669922
aF30.156307220458984
aF92.726310729980469
aa(lp4
F252.75003051757812
aF329.75003051757812
aF26.87005615234375
aF14.849242210388184
aF45
aa(lp5
F197.49375915527344
aF261.65121459960938
aF24.334789276123047
aF50.511512756347656
aF112.93209838867188
aa.(lp1
(lp2
F212.338134765625
aF263.44793701171875
aF54.056331634521484
aF24.709293365478516
aF81.253837585449219
aa.(lp1
(lp2
F359.51922607421875
aF338.09619140625
aF42.949432373046875
aF20.003847122192383
aF78.690067291259766
aa(lp3
F230.56068420410156
aF394.64453125
aF13.685146331787109
aF25.165464401245117
aF171.25383758544922
aa(lp4
F214.3818359375
aF264.120361328125
aF32.65106201171875
aF68.342689514160156
aF100.7843017578125
aa(lp5
F227.73077392578125
aF258.34616088867188
aF13.331280708312988
aF2.2803506851196289
aF74.744879722595215
aa.(lp1
(lp2
F191.12254333496094
aF261.4676513671875
aF31.839927673339844
aF62.81988525390625
aF99.659896850585938
aa(lp3
F388.88516235351562
aF352.939208984375
aF14.53095531463623
aF29.759395599365234
aF144.46232223510742
aa.(lp1
(lp2
F212.72021484375
aF258.66323852539062
aF27.688869476318359
aF50.59326171875
aF104.74356079101562
aa.(lp1
(lp2
F188.43914794921875
aF261.25393676757812
aF33.786487579345703
aF74.287918090820312
aF93.468231201171875
aa(lp3
F372.22000122070312
aF357.96002197265625
aF45.681060791015625
aF14.595656394958496
aF74.931510925292969
aa(lp4
F247.9000244140625
aF325.80001831054688
aF28.621667861938477
aF17.441329956054688
aF63.43494987487793
aa(lp5
F301.94558715820312
aF254.9554443359375
aF11.442927360534668
aF20.398262023925781
aF174.28940677642822
aa.(lp1
(lp2
F241.15469360351562
aF326.439208984375
aF42.41497802734375
aF21.706798553466797
aF86.987212657928467
aa(lp3
F299
aF254
aF10
aF18
aF180
aa(lp4
F172.30003356933594
aF270.60006713867188
aF26.832815170288086
aF13.863621711730957
aF63.43494987487793
aa(lp5
F193.1585693359375
aF268.07315063476562
aF7.1780500411987305
aF33.902481079101562
aF96.340187072753906
aa(lp6
F205.41752624511719
aF256.95953369140625
aF13.552658081054688
aF54.816333770751953
aF100.17550659179688
aa.(lp1
(lp2
F191.6221923828125
aF263.36923217773438
aF72.551765441894531
aF34.001411437988281
aF64.09349250793457
aa.(lp1
(lp2
F191.32872009277344
aF266.0086669921875
aF26.674972534179688
aF65.266876220703125
aF91.507431030273438
aa(lp3
F383.43905639648438
aF374.04879760742188
aF25.300148010253906
aF11.869206428527832
aF51.340194702148438
aa.(lp1
(lp2
F180.11538696289062
aF262.92312622070312
aF64.99420166015625
aF31.628856658935547
aF82.874983310699463
aa(lp3
F364.74078369140625
aF339.79348754882812
aF36.346530914306641
aF18.068460464477539
aF56.976131439208984
aa(lp4
F229.5
aF327.5
aF29
aF19
aF90
aa(lp5
F394.50003051757812
aF375
aF25.614448547363281
aF12.965337753295898
aF71.565052032470703
aa(lp6
F206
aF385.5
aF12
aF23
aF180
aa.(lp1
(lp2
F239
aF327
aF32
aF16
aF90
aa(lp3
F166
aF266
aF26
aF14
aF90
aa(lp4
F226
aF384
aF12
aF24
aF180
aa.(lp1
(lp2
F302
aF255.5
aF12
aF21
aF180
aa(lp3
F214.5701904296875
aF263.68453979492188
aF53.453617095947266
aF21.1483154296875
aF87.614055871963501
aa.(lp1
(lp2
F241.5
aF326.5
aF37
aF19
aF90
aa(lp3
F231
aF342
aF20
aF10
aF90
aa.(lp1
(lp2
F243.90138244628906
aF328.54193115234375
aF42.681758880615234
aF20.587059020996094
aF81.027373313903809
aa(lp3
F208.00308227539062
aF261.56802368164062
aF36.553165435791016
aF18.02684211730957
aF87.397437810897827
aa.(lp1
(lp2
F249.165771484375
aF328.49398803710938
aF44.587429046630859
aF24.327077865600586
aF81.573030471801758
aa.(lp1
(lp2
F236.38951110839844
aF262.3642578125
aF51.045249938964844
aF31.323219299316406
aF64.885164260864258
aa(lp3
F207.85519409179688
aF280.23794555664062
aF5.4810023307800293
aF12.207685470581055
aF94.763648986816406
aa(lp4
F208.44593811035156
aF271.82431030273438
aF6.4115610122680664
aF12.329923629760742
aF99.462326049804688
aa.(lp1
(lp2
F243.02943420410156
aF329.11767578125
aF41.231056213378906
aF20.130456924438477
aF75.96375560760498
aa(lp3
F256.8699951171875
aF256.0899658203125
aF29.698484420776367
aF18.526199340820312
aF81.86989688873291
aa.(lp1
(lp2
F240
aF329
aF39.844692230224609
aF18.973665237426758
aF71.56505012512207
aa(lp3
F366.44705200195312
aF407.98822021484375
aF19.957603454589844
aF36.227390289306641
aF102.52880859375
aa(lp4
F203
aF396.5
aF12
aF25
aF180
aa.(lp1
(lp2
F235.4154052734375
aF332.17691040039062
aF42.186485290527344
aF23.592859268188477
aF52.125015258789062
aa(lp3
F358.44326782226562
aF412.9405517578125
aF32.752140045166016
aF15.804208755493164
aF27.897266387939453
aa.(lp1
(lp2
F237.51947021484375
aF327.3756103515625
aF42.534408569335938
aF17.600446701049805
aF65.224861145019531
aa.(lp1
(lp2
F227.57315063476562
aF343.84146118164062
aF16.085897445678711
aF31.703277587890625
aF141.34019470214844
aa(lp3
F247.28378295898438
aF327.20272827148438
aF39.948955535888672
aF21.86506462097168
aF80.537677764892578
aa(lp4
F230.00003051757812
aF323.00003051757812
aF2.683281421661377
aF0.89442712068557739
aF63.43494987487793
aa(lp5
F319.5
aF255
aF1
aF6
aF180
aa.(lp1
(lp2
F385.67306518554688
aF359.63461303710938
aF15.100942611694336
aF30.986349105834961
aF101.30992889404297
aa.(lp1
(lp2
F232.38525390625
aF328.73770141601562
aF30.347711563110352
aF12.883461952209473
aF66.370622634887695
aa.(lp1
(lp2
F246.55738830566406
aF326.63116455078125
aF21.275899887084961
aF12.403396606445312
aF84.80557107925415
aa.(lp1
(lp2
F239.42308044433594
aF327.38461303710938
aF35.970073699951172
aF14.015925407409668
aF82.874983310699463
aa.(lp1
(lp2
F252.48277282714844
aF324.2069091796875
aF26.368736267089844
aF15.969799041748047
aF68.198593139648438
aa(lp3
F224.5
aF350.5
aF17
aF31
aF180
aa(lp4
F250.50001525878906
aF350.50003051757812
aF22.645195007324219
aF11.713032722473145
aF38.659805297851562
aa.(lp1
(lp2
F250.82353210449219
aF330.20587158203125
aF26.582281112670898
aF16.63536262512207
aF59.036245346069336
aa(lp3
F238.46922302246094
aF354.55380249023438
aF46.571773529052734
aF22.715799331665039
aF74.744879722595215
aa.(lp1
(lp2
F252.13346862792969
aF327.69683837890625
aF32.221019744873047
aF20.045646667480469
aF47.726314544677734
aa(lp3
F251.39027404785156
aF350.51220703125
aF23.738412857055664
aF14.992681503295898
aF38.659809112548828
aa.(lp1
(lp2
F224.25003051757812
aF359.25003051757812
aF24.041629791259766
aF14.849242210388184
aF45
aa(lp3
F250.92304992675781
aF349.88461303710938
aF24.406810760498047
aF14.144855499267578
aF56.3099365234375
aa.(lp1
(lp2
F248.55204772949219
aF337.59451293945312
aF55.796989440917969
aF35.33111572265625
aF47.121101379394531
aa(lp3
F360.20001220703125
aF346.10000610351562
aF16.099689483642578
aF29.068883895874023
aF116.56504821777344
aa.(lp1
(lp2
F243.57411193847656
aF348.6396484375
aF68.000114440917969
aF31.181392669677734
aF40.236354827880859
aa(lp3
F223.1500244140625
aF339.45004272460938
aF17.708751678466797
aF11.70042610168457
aF71.56505012512207
aa.(lp1
(lp2
F252.75003051757812
aF351.25003051757812
aF45.961936950683594
aF16.970563888549805
aF45
aa(lp3
F366.7518310546875
aF343.18246459960938
aF16.916280746459961
aF32.123847961425781
aF109.98310852050781
aa.(lp1
(lp2
F249.46719360351562
aF345.63931274414062
aF73.109054565429688
aF34.057807922363281
aF39.805572509765625
aa.(lp1
(lp2
F399.39999389648438
aF262.80001831054688
aF34.04864501953125
aF20.595281600952148
aF85.236358165740967
aa(lp3
F374.31036376953125
aF340.72412109375
aF17.455360412597656
aF31.939598083496094
aF111.80140686035156
aa(lp4
F243.54122924804688
aF356.42279052734375
aF55.468357086181641
aF28.911516189575195
aF84.427801609039307
aa(lp5
F239.00003051757812
aF361.50003051757812
aF2.1213202476501465
aF0.70710670948028564
aF45
aa.(lp1
(lp2
F255.00003051757812
aF349.50003051757812
aF79.903060913085938
aF31.819805145263672
aF45
aa(lp3
F261.68292236328125
aF327.85366821289062
aF34.358226776123047
aF18.428504943847656
aF51.340190887451172
aa(lp4
F381.74481201171875
aF339.8634033203125
aF16.584833145141602
aF31.015789031982422
aF111.03751373291016
aa.(lp1
(lp2
F386.9000244140625
aF339.70004272460938
aF17.441329956054688
aF38.013153076171875
aF116.56504821777344
aa(lp3
F208
aF386
aF24
aF14
aF90
aa(lp4
F258.93243408203125
aF351.90542602539062
aF80.675857543945312
aF26.969451904296875
aF54.462322235107422
aa(lp5
F242.25003051757812
aF361.75003051757812
aF12.020814895629883
aF2.8284268379211426
aF45
aa(lp6
F255.85246276855469
aF349.1229248046875
aF23.430746078491211
aF3.5850327014923096
aF50.194431304931641
aa(lp7
F240
aF367.5
aF1
aF4
aF90
aa(lp8
F277.25003051757812
aF345.25003051757812
aF1.4142134189605713
aF0.70710670948028564
aF45
aa(lp9
F234.9000244140625
aF367.30001831054688
aF2.2360680103302002
aF0.4472135603427887
aF63.43494987487793
aa.(lp1
(lp2
F393.57797241210938
aF338.27725219726562
aF17.508571624755859
aF34.781177520751953
aF109.29004669189453
aa(lp3
F264.54776000976562
aF357.83758544921875
aF81.245246887207031
aF36.312953948974609
aF61.389537811279297
aa(lp4
F249.00003051757812
aF362.00003051757812
aF21.213203430175781
aF2.8284268379211426
aF45
aa.(lp1
(lp2
F404.17617797851562
aF337.2305908203125
aF17.967226028442383
aF42.296779632568359
aF104.74356079101562
aa(lp3
F271.17123413085938
aF400.62332153320312
aF20.95036506652832
aF12.757484436035156
aF69.443954467773438
aa(lp4
F265.6297607421875
aF356.93081665039062
aF83.411766052246094
aF29.882352828979492
aF61.927511215209961
aa(lp5
F235.34405517578125
aF375.1468505859375
aF10.727654457092285
aF3.3523924350738525
aF73.300756454467773
aa(lp6
F247
aF370
aF4
aF2
aF0
aa(lp7
F257.25003051757812
aF358.25003051757812
aF7.0710678100585938
aF0.70710670948028564
aF45
aa(lp8
F246.20001220703125
aF362.60000610351562
aF0.63245546817779541
aF3.1622774600982666
aF161.56505012512207
aa.(lp1
(lp2
F403.48342895507812
aF336.562255859375
aF17.456644058227539
aF35.750686645507812
aF104.93141937255859
aa(lp3
F214.89999389648438
aF387.70001220703125
aF23.523435592651367
aF12.074769020080566
aF79.69515323638916
aa(lp4
F352.19229125976562
aF252.53846740722656
aF22.161123275756836
aF13.13978099822998
aF11.309928894042969
aa(lp5
F266.31698608398438
aF353.6795654296875
aF82.33453369140625
aF37.093833923339844
aF43.567901611328125
aa(lp6
F261.14755249023438
aF353.1229248046875
aF14.084057807922363
aF1.6644794940948486
aF39.805572509765625
aa(lp7
F246.25003051757812
aF372.25003051757812
aF4.242640495300293
aF0.70710670948028564
aF45
aa(lp8
F249.70002746582031
aF365.9000244140625
aF7.6026301383972168
aF4.9193496704101562
aF63.43494987487793
aa(lp9
F283.25003051757812
aF351.25003051757812
aF1.4142134189605713
aF0.70710670948028564
aF45
aa.(lp1
(lp2
F409.40927124023438
aF338.17385864257812
aF17.805871963500977
aF42.157215118408203
aF109.44003295898438
aa(lp3
F275.73617553710938
aF350.77645874023438
aF59.503715515136719
aF37.242485046386719
aF16.313850402832031
aa(lp4
F249.96286010742188
aF358.62127685546875
aF54.458442687988281
aF15.549504280090332
aF50.710594177246094
aa(lp5
F257.50341796875
aF361.05862426757812
aF12.041595458984375
aF1.3287277221679688
aF41.633537292480469
aa.(lp1
(lp2
F265.578369140625
aF355.17031860351562
aF86.46124267578125
aF30.511405944824219
aF53.972621917724609
aa(lp3
F409.8582763671875
aF337.28179931640625
aF18.792276382446289
aF38.600349426269531
aF106.38954162597656
aa(lp4
F263
aF338
aF28
aF16
aF90
aa.(lp1
(lp2
F415.50003051757812
aF337.49996948242188
aF20.130456924438477
aF40.988517761230469
aF104.03623962402344
aa(lp3
F212.5
aF391.5
aF27
aF15
aF90
aa(lp4
F268.15887451171875
aF355.75131225585938
aF85.463020324707031
aF27.499011993408203
aF53.615646362304688
aa(lp5
F250.21954345703125
aF368.47561645507812
aF12.962422370910645
aF4.6852130889892578
aF38.659805297851562
aa(lp6
F243.79412841796875
aF373.67648315429688
aF4.123105525970459
aF1.6977493762969971
aF75.96375560760498
aa(lp7
F257.25
aF363.25
aF1.4142134189605713
aF0.70710670948028564
aF45
aa(lp8
F268.25
aF352.25
aF4.242640495300293
aF0.70710670948028564
aF45
aa(lp9
F288.75
aF350.75
aF4.242640495300293
aF0.70710670948028564
aF45
aa.(lp1
(lp2
F416.46157836914062
aF336.19232177734375
aF18.238801956176758
aF37.065948486328125
aF101.30992889404297
aa(lp3
F216.54322814941406
aF391.14053344726562
aF26.100122451782227
aF14.851337432861328
aF72.897270202636719
aa(lp4
F269.43170166015625
aF357.48538208007812
aF86.821434020996094
aF27.952747344970703
aF57.094757080078125
aa(lp5
F264.19174194335938
aF355.01852416992188
aF28.425195693969727
aF2.6336443424224854
aF50.527538299560547
aa(lp6
F257.51220703125
aF365.10980224609375
aF6.4031243324279785
aF1.2493901252746582
aF38.659805297851562
aa(lp7
F250.76922607421875
aF367.65380859375
aF6.1017026901245117
aF2.4961509704589844
aF56.3099365234375
aa(lp8
F244.90000915527344
aF375.70004272460938
aF6.7082037925720215
aF3.1304950714111328
aF26.565048217773438
aa(lp9
F288.75003051757812
aF351.75003051757812
aF2.8284268379211426
aF0.70710670948028564
aF45
aa(lp10
F252.25001525878906
aF370.75003051757812
aF4.9497470855712891
aF1.4142134189605713
aF45
aa(lp11
F263.300048828125
aF358.9000244140625
aF2.2360680103302002
aF0.4472135603427887
aF26.565048217773438
aa.(lp1
(lp2
F271.22207641601562
aF354.21417236328125
aF85.969993591308594
aF35.735134124755859
aF43.958370208740234
aa(lp3
F426.00006103515625
aF336.00006103515625
aF19.402849197387695
aF41.71612548828125
aF104.03623962402344
aa.(lp1
(lp2
F430.20501708984375
aF335.778076171875
aF19.412872314453125
aF41.374156951904297
aF102.99462127685547
aa(lp3
F274.07693481445312
aF356.11538696289062
aF80.228530883789062
aF44.757537841796875
aF33.111339569091797
aa(lp4
F258.25006103515625
aF369.25003051757812
aF14.142135620117188
aF4.9497470855712891
aF45
aa(lp5
F250.25003051757812
aF380.25003051757812
aF4.242640495300293
aF0.70710670948028564
aF45
aa(lp6
F274.25
aF355.25
aF4.242640495300293
aF0.70710670948028564
aF45
aa(lp7
F269.5
aF357
aF19.091880798339844
aF2.1213207244873047
aF45
aa(lp8
F278.5
aF348.5
aF5
aF1
aF90
aa.(lp1
(lp2
F438.98675537109375
aF334.90377807617188
aF18.981719970703125
aF43.922100067138672
aF100.61965179443359
aa(lp3
F374.71487426757812
aF249.37139892578125
aF20.663476943969727
aF35.091938018798828
aF177.70938992500305
aa(lp4
F225.60980224609375
aF392.71383666992188
aF30.791582107543945
aF16.954378128051758
aF81.253837585449219
aa(lp5
F289.01217651367188
aF357.40615844726562
aF76.4581298828125
aF29.25848388671875
aF60.52410888671875
aa(lp6
F259.42303466796875
aF372.38458251953125
aF4.1602516174316406
aF1.1094003915786743
aF56.3099365234375
aa(lp7
F262.1922607421875
aF374.53848266601562
aF3.6055512428283691
aF1.1094003915786743
aF56.309932708740234
aa(lp8
F271.00003051757812
aF365.50003051757812
aF2.1213202476501465
aF0.70710670948028564
aF45
aa(lp9
F276.50003051757812
aF360.00003051757812
aF3.5355339050292969
aF0.70710670948028564
aF45
aa(lp10
F304.25003051757812
aF351.25003051757812
aF2.8284268379211426
aF0.70710670948028564
aF45
aa.(lp1
(lp2
F442.4189453125
aF334.48648071289062
aF18.905881881713867
aF40.770950317382812
aF99.462326049804688
aa(lp3
F286.36026000976562
aF363.56692504882812
aF90.15008544921875
aF34.341255187988281
aF61.232351303100586
aa(lp4
F268.3583984375
aF370.87606811523438
aF16.274471282958984
aF1.3170092105865479
aF41.185924530029297
aa(lp5
F282.25003051757812
aF356.25003051757812
aF4.242640495300293
aF0.70710670948028564
aF45
aa(lp6
F303.75
aF354.75
aF1.4142134189605713
aF0.70710670948028564
aF45
aa(lp7
F260.10003662109375
aF379.70001220703125
aF2.2360680103302002
aF0.4472135603427887
aF63.43494987487793
aa.(lp1
(lp2
F451.05401611328125
aF334.17568969726562
aF19.399080276489258
aF45.209720611572266
aF99.462326049804688
aa(lp3
F288.09307861328125
aF358.42538452148438
aF87.271690368652344
aF37.497406005859375
aF41.820167541503906
aa(lp4
F280.50003051757812
aF364.00003051757812
aF21.920310974121094
aF0.70710659027099609
aF45
aa.(lp1
(lp2
F292.79998779296875
aF365.4000244140625
aF92.033760070800781
aF29.768331527709961
aF60.255119323730469
aa(lp3
F457.84616088867188
aF334.76922607421875
aF20.003847122192383
aF45.498947143554688
aF101.30992889404297
aa.(lp1
(lp2
F294.80813598632812
aF366.61373901367188
aF91.382080078125
aF34.889602661132812
aF59.349330902099609
aa(lp3
F459.88238525390625
aF334.47061157226562
aF20.372991561889648
aF46.081764221191406
aF104.03623962402344
aa(lp4
F235.9000244140625
aF400.2000732421875
aF13.863621711730957
aF23.255105972290039
aF116.56504821777344
aa.(lp1
(lp2
F296.18023681640625
aF363.52288818359375
aF85.232589721679688
aF29.249912261962891
aF59.349330902099609
aa(lp3
F463.21331787109375
aF335.11117553710938
aF19.408851623535156
aF49.008316040039062
aF103.49573516845703
aa.(lp1
(lp2
F297.18252563476562
aF373.68914794921875
aF92.509956359863281
aF45.844474792480469
aF60.488504409790039
aa(lp3
F464.61761474609375
aF334.47061157226562
aF19.740673065185547
aF48.483959197998047
aF102.52880859375
aa(lp4
F233.54702758789062
aF400.88821411132812
aF13.6519775390625
aF25.309844970703125
aF94.398712158203125
aa.(lp1
(lp2
F293.79513549804688
aF367.86944580078125
aF92.59857177734375
aF31.666782379150391
aF60.689996719360352
aa(lp3
F461.6280517578125
aF332.34756469726562
aF18.662929534912109
aF37.767585754394531
aF96.340187072753906
aa(lp4
F237.70002746582031
aF400.90005493164062
aF26.385599136352539
aF17.441329956054688
aF63.43494987487793
aa.(lp1
(lp2
F467.70993041992188
aF331.51101684570312
aF21.128652572631836
aF49.405303955078125
aF93.012786865234375
aa(lp3
F387
aF254.5
aF18
aF33
aF180
aa(lp4
F238.51768493652344
aF401.73452758789062
aF25.587608337402344
aF16.838907241821289
aF48.814071655273438
aa(lp5
F292.90521240234375
aF366.61209106445312
aF93.940879821777344
aF29.950986862182617
aF59.6763916015625
aa(lp6
F288.75
aF363.75
aF5.6568536758422852
aF0.70710670948028564
aF45
aa.(lp1
(lp2
F291.73077392578125
aF366.34613037109375
aF95.685783386230469
aF31.340560913085938
aF56.309932708740234
aa(lp3
F470.88238525390625
aF332.97061157226562
aF22.798347473144531
aF52.630229949951172
aF104.03623962402344
aa(lp4
F388.98321533203125
aF255.76174926757812
aF29.775217056274414
aF16.219961166381836
aF10.007980346679688
aa.(lp1
(lp2
F471.48776245117188
aF330.60977172851562
aF19.435951232910156
aF50.356784820556641
aF96.340187072753906
aa(lp3
F388.29409790039062
aF256.82354736328125
aF28.619203567504883
aF16.492422103881836
aF14.036239624023438
aa(lp4
F289.96636962890625
aF364.089111328125
aF95.163551330566406
aF34.596019744873047
aF51.632514953613281
aa(lp5
F234.89999389648438
aF402.30001831054688
aF27.42350959777832
aF17.277545928955078
aF72.897270202636719
aa(lp6
F278.75003051757812
aF373.75003051757812
aF1.4142134189605713
aF0.70710670948028564
aF45
aa(lp7
F227.10000610351562
aF399.20004272460938
aF4.4721360206604004
aF0.44721353054046631
aF63.43494987487793
aa.(lp1
(lp2
F470.60089111328125
aF331.17831420898438
aF21.327676773071289
aF47.346572875976562
aF92.489555358886719
aa(lp3
F234.15202331542969
aF402.6640625
aF31.622772216796875
aF15.93787670135498
aF55.304843902587891
aa(lp4
F298.23623657226562
aF366.55609130859375
aF85.384590148925781
aF22.479457855224609
aF49.820766448974609
aa(lp5
F274.25
aF378.75003051757812
aF24.748737335205078
aF1.4142135381698608
aF45
aa(lp6
F264.00003051757812
aF377.50003051757812
aF27.577163696289062
aF13.435028076171875
aF45
aa.(lp1
(lp2
F475.68145751953125
aF330.77877807617188
aF21.552158355712891
aF53.481273651123047
aF93.814079284667969
aa(lp3
F387.99996948242188
aF255.50001525878906
aF30.790229797363281
aF17.062103271484375
aF11.309928894042969
aa(lp4
F231.5
aF407
aF25
aF16
aF90
aa(lp5
F290.3900146484375
aF368.80224609375
aF96.5576171875
aF30.366064071655273
aF58.877529144287109
aa(lp6
F286.50003051757812
aF367.00003051757812
aF4.9497470855712891
aF0.70710670948028564
aF45
aa.(lp1
(lp2
F289.68624877929688
aF368.03060913085938
aF96.845603942871094
aF31.280673980712891
aF52.224319458007812
aa(lp3
F478.71383666992188
aF330.6507568359375
aF21.411426544189453
aF59.297451019287109
aF93.179832458496094
aa(lp4
F386.9647216796875
aF256.15884399414062
aF30.044868469238281
aF17.354436874389648
aF12.52880859375
aa.(lp1
(lp2
F286.8907470703125
aF372.064208984375
aF97.905593872070312
aF28.798746109008789
aF59.534454345703125
aa(lp3
F475.5
aF330.49996948242188
aF56.999992370605469
aF22.999996185302734
aF90
aa(lp4
F383.5
aF257.5
aF17
aF29
aF180
aa.(lp1
(lp2
F285.67666625976562
aF372.76129150390625
aF97.413688659667969
aF29.235408782958984
aF58.877529144287109
aa(lp3
F469
aF331
aF44
aF22
aF90
aa(lp4
F224.51548767089844
aF410.34024047851562
aF27.856775283813477
aF15.651486396789551
aF68.962490081787109
aa.(lp1
(lp2
F471.12762451171875
aF332.468994140625
aF21.840963363647461
aF55.972660064697266
aF94.763648986816406
aa(lp3
F282.36883544921875
aF373.94259643554688
aF95.899627685546875
aF21.382160186767578
aF50.194431304931641
aa(lp4
F249.25004577636719
aF382.25006103515625
aF35.355339050292969
aF10.606601715087891
aF45
aa(lp5
F276.25003051757812
aF369.25003051757812
aF4.242640495300293
aF0.70710670948028564
aF45
aa.(lp1
(lp2
F469.80880737304688
aF332.48532104492188
aF20.324573516845703
aF54.301120758056641
aF94.398712158203125
aa(lp3
F219.32759094238281
aF408.4310302734375
aF29.937868118286133
aF15.494161605834961
aF66.801410675048828
aa(lp4
F378.503173828125
aF261.58914184570312
aF29.401731491088867
aF15.744880676269531
aF16.389541625976562
aa(lp5
F277.9520263671875
aF373.008544921875
aF95.523567199707031
aF29.436918258666992
aF61.460016250610352
aa(lp6
F275.75003051757812
aF367.75003051757812
aF8.4852809906005859
aF0.70710670948028564
aF45
aa.(lp1
(lp2
F468.60760498046875
aF332.1280517578125
aF21.214040756225586
aF59.143852233886719
aF91.591140747070312
aa(lp3
F214.54733276367188
aF408.8135986328125
aF29.769235610961914
aF15.769232749938965
aF67.380134582519531
aa(lp4
F376.23529052734375
aF262.05880737304688
aF25.223705291748047
aF15.037208557128906
aF14.036239624023438
aa(lp5
F273.925048828125
aF373.90090942382812
aF98.224098205566406
aF32.330867767333984
aF60.488502502441406
aa(lp6
F273.75003051757812
aF366.75003051757812
aF2.8284268379211426
aF0.70710670948028564
aF45
aa.(lp1
(lp2
F468.14114379882812
aF333.66473388671875
aF20.47796630859375
aF58.519435882568359
aF94.398712158203125
aa(lp3
F271.7359619140625
aF372.4775390625
aF97.413810729980469
aF31.481937408447266
aF57.994613647460938
aa.(lp1
(lp2
F268.98843383789062
aF375.31741333007812
aF97.211227416992188
aF31.080234527587891
aF62.152421951293945
aa(lp3
F469.0968017578125
aF332.4844970703125
aF21.253519058227539
aF64.260185241699219
aF92.202598571777344
aa(lp4
F209.23973083496094
aF411.02737426757812
aF29.876571655273438
aF13.489974975585938
aF65.556045532226562
aa.(lp1
(lp2
F470
aF331.5
aF66
aF21
aF90
aa(lp3
F267.65386962890625
aF377.26925659179688
aF97.367263793945312
aF29.644302368164062
aF60.255117416381836
aa(lp4
F264.50003051757812
aF372.50003051757812
aF9.8994951248168945
aF1.4142134189605713
aF45
aa.(lp1
(lp2
F468.65884399414062
aF331.87155151367188
aF20.446422576904297
aF63.184059143066406
aF92.202598571777344
aa(lp3
F378.50003051757812
aF266.50003051757812
aF24.596748352050781
aF15.652474403381348
aF26.565048217773438
aa(lp4
F266.69171142578125
aF377.47152709960938
aF98.61474609375
aF30.880094528198242
aF59.743558883666992
aa(lp5
F241.75003051757812
aF391.25006103515625
aF20.506095886230469
aF1.4142134189605713
aF45
aa(lp6
F261.75
aF375.75
aF14.142135620117188
aF0.70710659027099609
aF45
aa.(lp1
(lp2
F265.31549072265625
aF378.87594604492188
aF96.280769348144531
aF31.939804077148438
aF62.525568008422852
aa(lp3
F471.0748291015625
aF331.23175048828125
aF21.208473205566406
aF68.029212951660156
aF91.54815673828125
aa(lp4
F243.25003051757812
aF376.25003051757812
aF1.4142134189605713
aF0.70710670948028564
aF45
aa.(lp1
(lp2
F471.086669921875
aF330.4857177734375
aF21.228763580322266
aF64.237693786621094
aF91.974929809570312
aa(lp3
F208.00001525878906
aF415.00003051757812
aF23.768489837646484
aF11.641709327697754
aF75.96375560760498
aa(lp4
F266.86981201171875
aF377.92242431640625
aF97.931007385253906
aF29.368600845336914
aF58.861028671264648
aa(lp5
F262.75003051757812
aF375.75003051757812
aF5.6568536758422852
aF0.70710670948028564
aF45
aa(lp6
F232.00003051757812
aF387.50006103515625
aF2.1213202476501465
aF0.70710670948028564
aF45
aa.(lp1
(lp2
F473.5
aF330
aF65
aF20
aF90
aa(lp3
F529.78460693359375
aF332.37689208984375
aF12.279437065124512
aF20.589765548706055
aF119.7448844909668
aa(lp4
F257.56222534179688
aF383.53860473632812
aF75.076957702636719
aF30.463165283203125
aF58.392498016357422
aa(lp5
F234.50003051757812
aF401.00006103515625
aF3.5355339050292969
aF0.70710670948028564
aF45
aa(lp6
F264.75003051757812
aF375.75003051757812
aF5.6568536758422852
aF0.70710670948028564
aF45
aa.(lp1
(lp2
F269.19058227539062
aF378.8524169921875
aF96.746871948242188
aF29.862668991088867
aF60.376249313354492
aa(lp3
F473
aF329
aF64
aF22
aF90
aa.(lp1
(lp2
F475.5
aF330
aF65
aF22
aF90
aa(lp3
F268.198974609375
aF380.06057739257812
aF95.941177368164062
aF30.411764144897461
aF61.927515029907227
aa(lp4
F279.62939453125
aF364.41766357421875
aF30.525205612182617
aF3.681431770324707
aF57.52880859375
aa.(lp1
(lp2
F267.97189331054688
aF380.455078125
aF95.081794738769531
aF29.573936462402344
aF57.994617462158203
aa(lp3
F478
aF331.5
aF74
aF27
aF90
aa.(lp1
(lp2
F478.5
aF329.5
aF71
aF21
aF90
aa(lp3
F269.03076171875
aF380.25384521484375
aF94.283744812011719
aF32.714263916015625
aF52.125015258789062
aa(lp4
F282.98764038085938
aF364.373779296875
aF26.384906768798828
aF3.236548900604248
aF50.710590362548828
aa.(lp1
(lp2
F479.39398193359375
aF329.71310424804688
aF69.286529541015625
aF23.181488037109375
aF88.152389645576477
aa(lp3
F440.5
aF361
aF19
aF12
aF90
aa(lp4
F270.94818115234375
aF383.6968994140625
aF95.663505554199219
aF29.512443542480469
aF59.743558883666992
aa(lp5
F249.50003051757812
aF394.00006103515625
aF31.819805145263672
aF0.70710670948028564
aF45
aa(lp6
F257.25003051757812
aF390.25006103515625
aF24.041629791259766
aF0.70710659027099609
aF45
aa.(lp1
(lp2
F480.37994384765625
aF329.778076171875
aF71.382209777832031
aF23.245969772338867
aF88.152389645576477
aa(lp3
F266.674560546875
aF386.78970336914062
aF79.575027465820312
aF30.608821868896484
aF52.224319458007812
aa(lp4
F244.81858825683594
aF401.27874755859375
aF16.274471282958984
aF1.2229371070861816
aF41.185924530029297
aa.(lp1
(lp2
F482.5
aF329
aF67
aF22
aF90
aa(lp3
F265.60003662109375
aF392.20004272460938
aF76.02630615234375
aF28.621667861938477
aF63.43494987487793
aa(lp4
F254.14683532714844
aF394.138671875
aF25.445463180541992
aF1.1309094429016113
aF43.363426208496094
aa.(lp1
(lp2
F270.5615234375
aF384.48739624023438
aF92.504722595214844
aF30.217086791992188
aF51.8427734375
aa(lp3
F485.5
aF330
aF75
aF24
aF90
aa.(lp1
(lp2
F260.30615234375
aF395.625244140625
aF68.029129028320312
aF30.919399261474609
aF69.227745056152344
aa(lp3
F480.5
aF330
aF71
aF24
aF90
aa.(lp1
(lp2
F260.314453125
aF394.08248901367188
aF72.191116333007812
aF30.05424690246582
aF66.037509918212891
aa(lp3
F476.42974853515625
aF329.75222778320312
aF67.404594421386719
aF23.020009994506836
aF88.210089445114136
aa.(lp1
(lp2
F475.87655639648438
aF329.55072021484375
aF78.367996215820312
aF22.957542419433594
aF88.210089445114136
aa(lp3
F270.243408203125
aF386.59808349609375
aF77.216896057128906
aF19.964591979980469
aF42.510444641113281
aa(lp4
F238.75003051757812
aF404.75003051757812
aF39.528469085693359
aF22.768400192260742
aF71.56505012512207
aa(lp5
F239.75003051757812
aF398.75006103515625
aF32.526912689208984
aF0.70710659027099609
aF45
aa(lp6
F246.48452758789062
aF384.65982055664062
aF40.492839813232422
aF6.7488059997558594
aF68.962488174438477
aa.(lp1
(lp2
F472.37631225585938
aF330.16525268554688
aF73.219963073730469
aF22.14976692199707
aF88.152389645576477
aa(lp3
F248.30000305175781
aF394.60003662109375
aF69.76531982421875
aF28.174455642700195
aF63.43494987487793
aa(lp4
F243.24238586425781
aF397.14340209960938
aF19.849433898925781
aF1.9647922515869141
aF40.914382934570312
aa(lp5
F230.00003051757812
aF410.50006103515625
aF6.3639612197875977
aF0.70710670948028564
aF45
aa(lp6
F220.19114685058594
aF402.98529052734375
aF5.8309516906738281
aF1.2004899978637695
aF59.036245346069336
aa(lp7
F227.92306518554688
aF397.88461303710938
aF4.4376015663146973
aF0.83205032348632812
aF56.309932708740234
aa(lp8
F254.50001525878906
aF386.00006103515625
aF3.5777084827423096
aF0.4472135603427887
aF63.43494987487793
aa.(lp1
(lp2
F467.89923095703125
aF330.97430419921875
aF74.283966064453125
aF21.705429077148438
aF88.363422870635986
aa(lp3
F251.11032104492188
aF384.62408447265625
aF92.014389038085938
aF26.325420379638672
aF48.366466522216797
aa(lp4
F233.0623779296875
aF398.05868530273438
aF31.098426818847656
aF1.1137176752090454
aF43.264293670654297
aa(lp5
F216.73077392578125
aF402.34613037109375
aF3.6055512428283691
aF0.83205032348632812
aF56.309932708740234
aa(lp6
F222.10003662109375
aF398.70004272460938
aF2.2360680103302002
aF0.4472135603427887
aF63.43494987487793
aa.(lp1
(lp2
F248.70004272460938
aF389.10003662109375
aF91
aF29.800003051757812
aF53.130104064941406
aa(lp3
F464
aF331.5
aF78
aF23
aF90
aa.(lp1
(lp2
F248.46151733398438
aF388.19229125976562
aF92.080230712890625
aF28.567060470581055
aF56.3099365234375
aa(lp3
F462
aF332
aF70
aF24
aF90
aa(lp4
F194.8800048828125
aF418.34002685546875
aF10.600000381469727
aF1.2000000476837158
aF53.130104064941406
aa(lp5
F202.75003051757812
aF425.75006103515625
aF4.242640495300293
aF0.70710670948028564
aF45
aa.(lp1
(lp2
F466.2630615234375
aF329.23541259765625
aF83.593315124511719
aF22.243476867675781
aF86.820169925689697
aa(lp3
F244.71243286132812
aF391.40768432617188
aF80.973060607910156
aF31.838922500610352
aF58.392498016357422
aa(lp4
F212.99996948242188
aF402.99996948242188
aF7.2111024856567383
aF1.1094003915786743
aF56.309932708740234
aa(lp5
F221.79266357421875
aF396.36581420898438
aF9.2142524719238281
aF1.2493901252746582
aF51.340194702148438
aa(lp6
F234.50003051757812
aF384.00006103515625
aF3.5355339050292969
aF0.70710670948028564
aF45
aa.(lp1
(lp2
F463.5
aF330
aF73
aF24
aF90
aa(lp3
F269.50003051757812
aF371
aF30.674089431762695
aF19.289892196655273
aF18.434951782226562
aa(lp4
F237.23074340820312
aF398.84613037109375
aF50.477718353271484
aF30.508512496948242
aF56.309932708740234
aa(lp5
F222.49996948242188
aF396.99996948242188
aF6.3790526390075684
aF1.1094003915786743
aF56.3099365234375
aa(lp6
F244.51222229003906
aF387.10980224609375
aF6.4031243324279785
aF1.2493901252746582
aF38.659805297851562
aa(lp7
F227.50001525878906
aF392.00006103515625
aF2.1213202476501465
aF0.70710670948028564
aF45
aa.(lp1
(lp2
F246.37649536132812
aF390.39410400390625
aF69.309280395507812
aF31.888776779174805
aF40.601295471191406
aa(lp3
F469.57504272460938
aF327.23788452148438
aF77.221939086914062
aF22.504159927368164
aF86.531770467758179
aa.(lp1
(lp2
F469.41696166992188
aF327.34429931640625
aF75.210800170898438
aF22.439599990844727
aF88.49256420135498
aa(lp3
F536.39044189453125
aF321.97467041015625
aF12.067461013793945
aF26.383516311645508
aF102.99462127685547
aa(lp4
F249.73367309570312
aF394.03662109375
aF67.950607299804688
aF29.058120727539062
aF57.724353790283203
aa(lp5
F254.00003051757812
aF384.50006103515625
aF3.5355339050292969
aF0.70710670948028564
aF45
aa(lp6
F229.75
aF396.75003051757812
aF1.4142134189605713
aF0.70710670948028564
aF45
aa.(lp1
(lp2
F261.94479370117188
aF393.14068603515625
aF79.960639953613281
aF30.227205276489258
aF60.708637237548828
aa(lp3
F476.96157836914062
aF327.80770874023438
aF76.321205139160156
aF23.01678466796875
aF88.698047399520874
aa.(lp1
(lp2
F268.42080688476562
aF387.16293334960938
aF87.716514587402344
aF30.94294548034668
aF47.726314544677734
aa(lp3
F476.35174560546875
aF326.47930908203125
aF67.823944091796875
aF22.020757675170898
aF86.63353967666626
aa(lp4
F218.38992309570312
aF422.133056640625
aF25.190832138061523
aF13.122220993041992
aF73.300758361816406
aa.(lp1
(lp2
F489.083740234375
aF325.93191528320312
aF82.656044006347656
aF22.497409820556641
aF83.345574378967285
aa(lp3
F269.47787475585938
aF404.66812133789062
aF57.195827484130859
aF20.978076934814453
aF41.185924530029297
aa(lp4
F254.0828857421875
aF404.07464599609375
aF29.731765747070312
aF1.2635998725891113
aF41.987213134765625
aa(lp5
F250.4183349609375
aF400.13116455078125
aF42.415153503417969
aF12.771938323974609
aF36.326828002929688
aa(lp6
F245.60000610351562
aF403.80001831054688
aF3.1622774600982666
aF0.63245546817779541
aF71.565052032470703
aa.(lp1
(lp2
F279.41973876953125
aF401.64749145507812
aF62.736053466796875
aF25.290033340454102
aF62.241458892822266
aa(lp3
F494.38616943359375
aF326.868408203125
aF68.159896850585938
aF23.222620010375977
aF86.009087085723877
aa.(lp1
(lp2
F504.34033203125
aF324.7962646484375
aF80.055206298828125
aF25.170875549316406
aF84.644175052642822
aa(lp3
F265
aF409.5
aF20
aF13
aF90
aa(lp4
F288.75003051757812
aF398.75006103515625
aF63.639610290527344
aF21.920310974121094
aF45
aa(lp5
F274.25003051757812
aF404.75006103515625
aF12.020814895629883
aF2.8284270763397217
aF45
aa(lp6
F268.38238525390625
aF398.02944946289062
aF20.615528106689453
aF5.0932478904724121
aF75.96375560760498
aa(lp7
F273.25
aF400.25003051757812
aF7.0710678100585938
aF0.70710676908493042
aF45
aa(lp8
F264.68292236328125
aF410.14633178710938
aF10.619816780090332
aF0.93704259395599365
aF38.659805297851562
aa(lp9
F287.75003051757812
aF388.75006103515625
aF2.8284268379211426
aF0.70710670948028564
aF45
aa.(lp1
(lp2
F506.593505859375
aF325.44439697265625
aF72.829689025878906
aF25.006317138671875
aF85.815083980560303
aa(lp3
F284.70944213867188
aF403.99322509765625
aF50.218978881835938
aF28.945659637451172
aF54.462322235107422
aa.(lp1
(lp2
F515.46923828125
aF324.44613647460938
aF81.873748779296875
aF22.576301574707031
aF86.820170164108276
aa(lp3
F287.87783813476562
aF395.56564331054688
aF61.213214874267578
aF16.413213729858398
aF47.726314544677734
aa(lp4
F304.58447265625
aF401.27993774414062
aF49.026199340820312
aF10.353490829467773
aF47.563770294189453
aa(lp5
F279.691162109375
aF421.48529052734375
aF13.033892631530762
aF6.0024504661560059
aF59.036245346069336
aa(lp6
F288.10000610351562
aF389.70004272460938
aF2.2360680103302002
aF0.4472135603427887
aF63.43494987487793
aa.(lp1
(lp2
F520.12518310546875
aF319.72628784179688
aF81.100692749023438
aF21.935754776000977
aF82.303948879241943
aa(lp3
F284.00003051757812
aF397.50006103515625
aF3.5355339050292969
aF0.70710670948028564
aF45
aa(lp4
F290.25
aF398.25003051757812
aF11.31370735168457
aF0.70710670948028564
aF45
aa(lp5
F289.15997314453125
aF391.6199951171875
aF6.4000000953674316
aF1
aF36.869899749755859
aa.(lp1
(lp2
F524.5
aF320
aF83
aF28
aF90
aa(lp3
F593.15179443359375
aF308.17935180664062
aF15.114277839660645
aF26.574554443359375
aF94.763648986816406
aa(lp4
F299
aF398.00003051757812
aF55.154327392578125
aF31.112697601318359
aF45
aa(lp5
F289.88577270507812
aF401.4010009765625
aF30.479461669921875
aF1.0579643249511719
aF40.914382934570312
aa(lp6
F287.75
aF396.75003051757812
aF1.4142134189605713
aF0.70710670948028564
aF45
aa.(lp1
(lp2
F531.13824462890625
aF317.9249267578125
aF86.754623413085938
aF21.966154098510742
aF83.290163516998291
aa(lp3
F314.11346435546875
aF394.95840454101562
aF77.411628723144531
aF26.973184585571289
aF58.570436477661133
aa.(lp1
(lp2
F534.269287109375
aF317.65386962890625
aF84.963790893554688
aF21.706075668334961
aF82.874983310699463
aa(lp3
F314.78192138671875
aF398.9027099609375
aF63.982013702392578
aF26.625038146972656
aF55.007976531982422
aa(lp4
F606
aF306.5
aF24
aF15
aF90
aa(lp5
F275.30001831054688
aF445.60006713867188
aF25.043960571289062
aF12.969193458557129
aF63.43494987487793
aa.(lp1
(lp2
F325.73171997070312
aF395.41461181640625
aF78.711578369140625
aF27.798933029174805
aF51.340190887451172
aa(lp3
F538.91998291015625
aF315.555908203125
aF78.654052734375
aF22.202384948730469
aF81.634114265441895
aa(lp4
F258.38461303710938
aF332.57693481445312
aF20.435447692871094
aF12.015693664550781
aF74.744879722595215
aa(lp5
F289.31472778320312
aF430.83767700195312
aF20.728059768676758
aF35.214794158935547
aF166.75947952270508
aa(lp6
F282
aF419.50003051757812
aF3.5355339050292969
aF0.70710670948028564
aF45
aa.(lp1
(lp2
F332.254150390625
aF393.506103515625
aF86.264350891113281
aF31.089447021484375
aF55.840309143066406
aa(lp3
F548.24755859375
aF313.71096801757812
aF90.477798461914062
aF22.809526443481445
aF80.049372673034668
aa(lp4
F620
aF302
aF20
aF12
aF90
aa(lp5
F288.25003051757812
aF440.25006103515625
aF39.597976684570312
aF23.33452033996582
aF45
aa.(lp1
(lp2
F555.0947265625
aF316.00070190429688
aF79.252616882324219
aF24.185575485229492
aF82.303948879241943
aa(lp3
F288
aF452
aF28
aF14
aF90
aa(lp4
F284.66854858398438
aF358.26968383789062
aF26.923946380615234
aF15.157970428466797
aF57.994613647460938
aa(lp5
F437.300048828125
aF279.0999755859375
aF26.563131332397461
aF15.811386108398438
aF18.434951782226562
aa(lp6
F343.38623046875
aF394.43441772460938
aF86.367301940917969
aF30.062465667724609
aF48.366458892822266
aa(lp7
F343.75
aF378.25
aF6.3639612197875977
aF1.4142134189605713
aF45
aa(lp8
F309.50003051757812
aF431.00006103515625
aF2.1213202476501465
aF0.70710670948028564
aF45
aa(lp9
F317.25
aF422.25003051757812
aF2.8284268379211426
aF0.70710670948028564
aF45
aa(lp10
F341.80001831054688
aF389.10003662109375
aF6.7082037925720215
aF0.89442706108093262
aF63.43494987487793
aa.(lp1
(lp2
F335.0328369140625
aF411.25323486328125
aF132.65010070800781
aF28.788871765136719
aF47.219657897949219
aa(lp3
F566.795654296875
aF312.5867919921875
aF91.666831970214844
aF23.718818664550781
aF79.796026229858398
aa.(lp1
(lp2
F363.20419311523438
aF397.28994750976562
aF84.831512451171875
aF25.746091842651367
aF53.343891143798828
aa(lp3
F441
aF276.5
aF44
aF23
aF90
aa(lp4
F554.00006103515625
aF315.00003051757812
aF39.914409637451172
aF22.869113922119141
aF83.884497165679932
aa(lp5
F324.75006103515625
aF426.75009155273438
aF2.8284268379211426
aF0.70710670948028564
aF45
aa.(lp1
(lp2
F379.95330810546875
aF395.80084228515625
aF88.509757995605469
aF25.571306228637695
aF51.095863342285156
aa(lp3
F563.9000244140625
aF312.29995727539062
aF33.541027069091797
aF21.913469314575195
aF63.43494987487793
aa(lp4
F454.52877807617188
aF274.97671508789062
aF26.118856430053711
aF43.653556823730469
aF96.009010314941406
aa.(lp1
(lp2
F385.54571533203125
aF396.58212280273438
aF88.00042724609375
aF22.296480178833008
aF46.847610473632812
aa(lp3
F357.810791015625
aF418.3648681640625
aF11.973506927490234
aF1.7437145709991455
aF35.537681579589844
aa(lp4
F365.07321166992188
aF408.6585693359375
aF7.8086886405944824
aF1.2493901252746582
aF38.659805297851562
aa(lp5
F350.78521728515625
aF412.05038452148438
aF13.025787353515625
aF6.5538558959960938
aF55.007976531982422
aa.(lp1
(lp2
F392.25802612304688
aF395.52264404296875
aF85.701713562011719
aF23.85069465637207
aF48.621482849121094
aa(lp3
F463.47988891601562
aF272.38592529296875
aF45.531749725341797
aF29.54350471496582
aF79.992019653320312
aa.(lp1
(lp2
F396.14883422851562
aF396.17465209960938
aF83.36346435546875
aF21.819820404052734
aF44.118595123291016
aa(lp3
F584.994140625
aF306.40667724609375
aF36.740810394287109
aF19.399646759033203
aF86.423665523529053
aa.(lp1
(lp2
F399.5
aF396.00003051757812
aF86.974136352539062
aF21.920309066772461
aF45
aa(lp3
F369.5
aF417.00003051757812
aF4.9497470855712891
aF0.70710670948028564
aF45
aa.(lp1
(lp2
F402.57357788085938
aF395.1337890625
aF85.493026733398438
aF21.210531234741211
aF44.090618133544922
aa.(lp1
(lp2
F405.29718017578125
aF394.75091552734375
aF82.836822509765625
aF22.516679763793945
aF46.080924987792969
aa.(lp1
(lp2
F404.75006103515625
aF395.75009155273438
aF84.852813720703125
aF21.920310974121094
aF45
aa(lp3
F380.02001953125
aF413.6400146484375
aF5
aF1.2000000476837158
aF36.869899749755859
aa.(lp1
(lp2
F404.00006103515625
aF396.00009155273438
aF86.26702880859375
aF21.213199615478516
aF45
aa(lp3
F594.5
aF302.5
aF39
aF25
aF90
aa(lp4
F478.39996337890625
aF270.70001220703125
aF11.822710037231445
aF5.206331729888916
aF12.52880859375
aa.(lp1
(lp2
F404.16470336914062
aF395.25210571289062
aF81.9310302734375
aF22.172412872314453
aF43.602817535400391
aa.(lp1
(lp2
F401.2327880859375
aF395.67755126953125
aF85.630386352539062
aF23.307273864746094
aF45.690273284912109
aa(lp3
F456.80007934570312
aF273.60003662109375
aF0.89442712068557739
aF3.5777084827423096
aF153.43494987487793
aa.(lp1
(lp2
F400.75
aF395.75003051757812
aF87.681236267089844
aF21.920310974121094
aF45
aa.(lp1
(lp2
F399.388427734375
aF397.85769653320312
aF84.372970581054688
aF25.873208999633789
aF37.874984741210938
aa(lp3
F472.800048828125
aF271.9000244140625
aF0.89442712068557739
aF2.2360680103302002
aF116.56504821777344
aa(lp4
F463.75003051757812
aF266.25003051757812
aF2.5298218727111816
aF7.2732377052307129
aF108.43495178222656
aa.(lp1
(lp2
F398.70370483398438
aF397.7210693359375
aF84.813896179199219
aF21.460483551025391
aF43.264297485351562
aa(lp3
F581.4755859375
aF299.28048706054688
aF35.117233276367188
aF23.411487579345703
aF83.65980863571167
aa(lp4
F353.29998779296875
aF448.60003662109375
aF22.360679626464844
aF14.758048057556152
aF63.43494987487793
aa(lp5
F452.50006103515625
aF274.00003051757812
aF0.89442712068557739
aF4.0249223709106445
aF153.43494987487793
aa(lp6
F470.25006103515625
aF271.25003051757812
aF1.4142134189605713
aF0.70710670948028564
aF45
aa.(lp1
(lp2
F399.75003051757812
aF398.25006103515625
aF84.145706176757812
aF22.627414703369141
aF45
aa.(lp1
(lp2
F400.23867797851562
aF397.86065673828125
aF81.104644775390625
aF21.66461181640625
aF42.089164733886719
aa.(lp1
(lp2
F396.6717529296875
aF397.7613525390625
aF83.39483642578125
aF22.096305847167969
aF43.876693725585938
aa(lp3
F579.2578125
aF296.32989501953125
aF51.376518249511719
aF25.992864608764648
aF66.037509918212891
aa(lp4
F466.04058837890625
aF274.24322509765625
aF49.648494720458984
aF30.085018157958984
aF80.537677764892578
aa(lp5
F467.08380126953125
aF253.39732360839844
aF27.570550918579102
aF11.836956977844238
aF72.897274017333984
aa(lp6
F482.23532104492188
aF260.94122314453125
aF0.9701424241065979
aF8.246211051940918
aF165.96375560760498
aa.(lp1
(lp2
F395.75
aF396.75003051757812
aF80.61016845703125
aF23.33452033996582
aF45
aa(lp3
F577.81988525390625
aF293.95510864257812
aF51.827854156494141
aF27.23859977722168
aF62.020526885986328
aa.(lp1
(lp2
F394.11712646484375
aF395.70538330078125
aF79.875511169433594
aF22.756784439086914
aF43.919078826904297
aa.(lp1
(lp2
F392.25
aF396.25003051757812
aF83.438591003417969
aF23.33452033996582
aF45
aa(lp3
F571.51922607421875
aF297.09616088867188
aF40.203804016113281
aF21.965005874633789
aF78.690067291259766
aa(lp4
F441.70004272460938
aF272.4000244140625
aF0.89442712068557739
aF3.1304950714111328
aF153.43494987487793
aa.(lp1
(lp2
F392.7384033203125
aF396.43563842773438
aF82.753326416015625
aF20.727588653564453
aF42.878902435302734
aa(lp3
F471.75006103515625
aF253.75004577636719
aF5.6568536758422852
aF14.849242210388184
aF135
aa(lp4
F440.64999389648438
aF271.45001220703125
aF0.94868320226669312
aF5.0596437454223633
aF161.5650520324707
aa(lp5
F462
aF256
aF6
aF2
aF0
aa.(lp1
(lp2
F394.3409423828125
aF395.4326171875
aF80.622573852539062
aF22.723163604736328
aF43.994911193847656
aa(lp3
F441.050048828125
aF270.6500244140625
aF0.94868320226669312
aF3.1622774600982666
aF161.5650520324707
aa(lp4
F457.25006103515625
aF268.25003051757812
aF1.4142134189605713
aF0.70710670948028564
aF45
aa.(lp1
(lp2
F396.94778442382812
aF397.58505249023438
aF85.204795837402344
aF22.736593246459961
aF41.009090423583984
aa.(lp1
(lp2
F399.41412353515625
aF397.66452026367188
aF81.966285705566406
aF20.491571426391602
aF40.100910186767578
aa.(lp1
(lp2
F403.305908203125
aF397.12359619140625
aF80.133766174316406
aF21.779697418212891
aF39.093852996826172
aa(lp3
F576.48883056640625
aF288.08551025390625
aF47.130645751953125
aF25.729795455932617
aF52.431407928466797
aa.(lp1
(lp2
F405.63055419921875
aF396.73471069335938
aF79.934112548828125
aF23.216005325317383
aF38.290164947509766
aa(lp3
F363.5
aF446.5
aF13
aF23
aF180
aa.(lp1
(lp2
F408.02691650390625
aF397.96533203125
aF81.30328369140625
aF21.049392700195312
aF37.874984741210938
aa(lp3
F581.79730224609375
aF287.28378295898438
aF44.223323822021484
aF27.454631805419922
aF80.537677764892578
aa(lp4
F469.95001220703125
aF254.35002136230469
aF4.7434163093566895
aF2.5298218727111816
aF71.565052032470703
aa(lp5
F449.20001220703125
aF269.10000610351562
aF0.94868320226669312
aF4.1109609603881836
aF161.5650520324707
aa(lp6
F465.75003051757812
aF265.75
aF1.4142134189605713
aF0.70710670948028564
aF45
aa(lp7
F483.7353515625
aF256.44119262695312
aF0.72760689258575439
aF5.0932478904724121
aF165.96375560760498
aa.(lp1
(lp2
F407.7718505859375
aF398.41375732421875
aF80.65069580078125
aF23.223287582397461
aF37.405357360839844
aa(lp3
F448.50003051757812
aF268.50003051757812
aF0.44721353054046631
aF3.1304950714111328
aF153.43494987487793
aa.(lp1
(lp2
F408.355224609375
aF398.21279907226562
aF81.318450927734375
aF20.95448112487793
aF38.047039031982422
aa(lp3
F577.1534423828125
aF281.29425048828125
aF50.771129608154297
aF25.295438766479492
aF57.2647705078125
aa.(lp1
(lp2
F409.52691650390625
aF396.9654541015625
aF79.110626220703125
aF21.663331985473633
aF37.874984741210938
aa(lp3
F369
aF448
aF14
aF24
aF180
aa(lp4
F295
aF475.5
aF12
aF5
aF90
aa.(lp1
(lp2
F410.89596557617188
aF397.82373046875
aF79.726577758789062
aF21.77293586730957
aF36.253841400146484
aa(lp3
F572.57275390625
aF282.24429321289062
aF48.195049285888672
aF29.409467697143555
aF46.847610473632812
aa(lp4
F295
aF475.5
aF20
aF5
aF90
aa.(lp1
(lp2
F412.1861572265625
aF397.80166625976562
aF76.487617492675781
aF21.227405548095703
aF37.998733520507812
aa(lp3
F448.30001831054688
aF266.60003662109375
aF0.89442712068557739
aF3.1304950714111328
aF153.43494987487793
aa(lp4
F464.75006103515625
aF262.75003051757812
aF1.4142134189605713
aF0.70710670948028564
aF45
aa.(lp1
(lp2
F413.1219482421875
aF398.09756469726562
aF78.711578369140625
aF21.864328384399414
aF38.659805297851562
aa.(lp1
(lp2
F415.63925170898438
aF397.8775634765625
aF78.988571166992188
aF21.035987854003906
aF36.573028564453125
aa(lp3
F450.300048828125
aF266.60006713867188
aF0.89442712068557739
aF3.1304950714111328
aF153.43494987487793
aa.(lp1
(lp2
F416.35296630859375
aF397.58822631835938
aF79.176338195800781
aF21.888339996337891
aF35.837657928466797
aa(lp3
F572.31500244140625
aF279.3211669921875
aF47.552043914794922
aF28.640396118164062
aF47.602561950683594
aa.(lp1
(lp2
F416.16220092773438
aF397.47299194335938
aF79.164642333984375
aF21.738307952880859
aF35.537681579589844
aa(lp3
F449.30007934570312
aF264.60003662109375
aF0.89442712068557739
aF3.1304950714111328
aF153.43494987487793
aa(lp4
F455.25003051757812
aF271.75
aF0.70710670948028564
aF1.4142134189605713
aF135
aa(lp5
F465.75006103515625
aF261.75003051757812
aF1.4142134189605713
aF0.70710670948028564
aF45
aa(lp6
F327.5
aF475
aF13
aF6
aF90
aa.(lp1
(lp2
F415.0079345703125
aF397.44296264648438
aF77.974952697753906
aF22.558147430419922
aF34.508522033691406
aa(lp3
F570.6470947265625
aF278.0882568359375
aF38.078090667724609
aF23.283418655395508
aF75.96375560760498
aa(lp4
F328
aF475.5
aF14
aF5
aF90
aa.(lp1
(lp2
F414.50003051757812
aF397.5
aF76.600013732910156
aF22.200000762939453
aF36.869899749755859
aa(lp3
F582.22930908203125
aF274.29641723632812
aF69.570137023925781
aF27.28240966796875
aF68.962488174438477
aa(lp4
F481.5
aF253.5
aF1
aF13
aF180
aa(lp5
F446.7353515625
aF263.441162109375
aF0.72760689258575439
aF5.0932478904724121
aF165.96375560760498
aa.(lp1
(lp2
F413.5
aF398.49993896484375
aF76.825981140136719
aF20.801258087158203
aF33.6900634765625
aa(lp3
F564.00006103515625
aF280.5
aF42.48529052734375
aF27.727243423461914
aF63.43494987487793
aa.(lp1
(lp2
F412.1378173828125
aF398.43624877929688
aF75.971092224121094
aF22.469413757324219
aF33.178512573242188
aa(lp3
F463
aF264
aF47.434169769287109
aF30.357866287231445
aF71.565053939819336
aa(lp4
F457.46481323242188
aF240.74275207519531
aF35.170951843261719
aF17.778722763061523
aF75.068583488464355
aa(lp5
F469.98275756835938
aF242.7069091796875
aF2.0426487922668457
aF5.7565555572509766
aF158.19859313964844
aa(lp6
F442.800048828125
aF263.60000610351562
aF0.89442712068557739
aF5.3665633201599121
aF153.43494987487793
aa(lp7
F478.5
aF252.5
aF1
aF7
aF180
aa.(lp1
(lp2
F412.88461303710938
aF398.92303466796875
aF73.775131225585938
aF21.91065788269043
aF33.6900634765625
aa(lp3
F355
aF476
aF12
aF4
aF90
aa(lp4
F294
aF476
aF10
aF4
aF90
aa(lp5
F441.50003051757812
aF262.5
aF0.44721353054046631
aF3.1304950714111328
aF153.43494987487793
aa.(lp1
(lp2
F412.80767822265625
aF399.03842163085938
aF74.052474975585938
aF23.020057678222656
aF33.6900634765625
aa.(lp1
(lp2
F416.28466796875
aF398.376953125
aF71.319969177246094
aF21.954147338867188
aF29.744884490966797
aa(lp3
F560.05169677734375
aF278.37930297851562
aF49.209266662597656
aF28.968471527099609
aF68.198593139648438
aa.(lp1
(lp2
F417.48626708984375
aF399.59771728515625
aF72.199432373046875
aF20.576580047607422
aF31.218402862548828
aa.(lp1
(lp2
F417.638427734375
aF402.50772094726562
aF68.219100952148438
aF20.465730667114258
aF29.744884490966797
aa(lp3
F552.7845458984375
aF277.59396362304688
aF45.117954254150391
aF24.974681854248047
aF48.012786865234375
aa(lp4
F469.99993896484375
aF242.99996948242188
aF1.1094005107879639
aF5.547001838684082
aF123.6900634765625
aa(lp5
F442.00003051757812
aF263.50003051757812
aF0.72760689258575439
aF5.3357834815979004
aF165.96375560760498
aa(lp6
F477.74325561523438
aF250.95948791503906
aF0.82199490070343018
aF8.0555505752563477
aF170.53767776489258
aa.(lp1
(lp2
F417.63211059570312
aF402.4622802734375
aF68.18426513671875
aF20.397003173828125
aF29.054603576660156
aa(lp3
F585.5
aF256
aF22.798347473144531
aF13.339458465576172
aF75.96375560760498
aa(lp4
F458.25
aF259.25003051757812
aF1.4142134189605713
aF0.70710670948028564
aF45
aa.(lp1
(lp2
F559.03375244140625
aF270.54730224609375
aF68.702362060546875
aF28.131931304931641
aF54.462326049804688
aa(lp3
F417.20272827148438
aF403.1798095703125
aF64.383796691894531
aF21.120611190795898
aF29.475894927978516
aa(lp4
F469.65573120117188
aF238.78691101074219
aF5.4321446418762207
aF11.226431846618652
aF95.194427490234375
aa(lp5
F468.02005004882812
aF243.3599853515625
aF1.2000000476837158
aF5
aF143.13010406494141
aa(lp6
F440.85296630859375
aF264.41180419921875
aF0.9701424241065979
aF5.0932478904724121
aF165.96375560760498
aa(lp7
F475.78848266601562
aF249.44233703613281
aF0.98058068752288818
aF7.0601806640625
aF168.69006729125977
aa.(lp1
(lp2
F416.52313232421875
aF402.58465576171875
aF65.7384033203125
aF21.333972930908203
aF29.744876861572266
aa(lp3
F553.1031494140625
aF272.1446533203125
aF60.4429931640625
aF26.946357727050781
aF48.179828643798828
aa.(lp1
(lp2
F414.30001831054688
aF405.40008544921875
aF53.218414306640625
aF22.360679626464844
aF26.565048217773438
aa(lp3
F591.543212890625
aF243.26724243164062
aF32.301383972167969
aF13.261951446533203
aF66.801408767700195
aa(lp4
F472.50003051757812
aF251.50003051757812
aF0.44721353054046631
aF3.1304950714111328
aF153.43494987487793
aa.(lp1
(lp2
F414.75006103515625
aF410.25003051757812
aF49.331531524658203
aF21.187259674072266
aF18.434951782226562
aa(lp3
F391
aF450.5
aF12
aF23
aF180
aa(lp4
F549.1455078125
aF265.42807006835938
aF75.76519775390625
aF32.683349609375
aF51.788974761962891
aa(lp5
F432.14712524414062
aF264.0882568359375
aF1.6977493762969971
aF8.4887466430664062
aF165.96375560760498
aa(lp6
F452.00006103515625
aF260.50003051757812
aF2.1213202476501465
aF0.70710670948028564
aF45
aa(lp7
F435.65005493164062
aF264.95001220703125
aF0.63245546817779541
aF4.1109609603881836
aF161.56505012512207
aa.(lp1
(lp2
F538.97918701171875
aF272.8531494140625
aF52.310344696044922
aF29.137931823730469
aF46.397178649902344
aa(lp3
F414.1207275390625
aF410.64321899414062
aF47.220500946044922
aF21.211748123168945
aF12.994621276855469
aa.(lp1
(lp2
F544.27813720703125
aF268.84808349609375
aF67.992439270019531
aF25.854526519775391
aF50.042453765869141
aa(lp3
F414.35003662109375
aF414.9500732421875
aF36.998645782470703
aF18.973665237426758
aF18.434951782226562
aa.(lp1
(lp2
F548.44781494140625
aF264.11886596679688
aF83.488235473632812
aF26.508350372314453
aF50.300926208496094
aa(lp3
F413.77804565429688
aF412.794921875
aF40.924434661865234
aF18.363525390625
aF12.994621276855469
aa(lp4
F399.00003051757812
aF449.00003051757812
aF29.516096115112305
aF17.888544082641602
aF63.43494987487793
aa.(lp1
(lp2
F535.85638427734375
aF271.93560791015625
aF61.494434356689453
aF26.736709594726562
aF50.710590362548828
aa(lp3
F412.98233032226562
aF413.32940673828125
aF42.084510803222656
aF17.46290397644043
aF12.52880859375
aa.(lp1
(lp2
F529.0999755859375
aF271.69998168945312
aF57.882705688476562
aF28.650693893432617
aF41.633537292480469
aa(lp3
F410.20266723632812
aF418.28378295898438
aF31.729005813598633
aF17.261894226074219
aF9.4623260498046875
aa(lp4
F460.84613037109375
aF244.76921081542969
aF1.1094003915786743
aF4.9923019409179688
aF146.30993270874023
aa(lp5
F463.80007934570312
aF251.60000610351562
aF0.89442712068557739
aF5.3665633201599121
aF153.43494987487793
aa(lp6
F455.10006713867188
aF242.70002746582031
aF2.2360680103302002
aF0.4472135603427887
aF63.43494987487793
aa.(lp1
(lp2
F530.75006103515625
aF266.25003051757812
aF78.488845825195312
aF26.87005615234375
aF45
aa.(lp1
(lp2
F537.99945068359375
aF261.83712768554688
aF100.22748565673828
aF26.80767822265625
aF52.943470001220703
aa(lp3
F392.516357421875
aF448.1802978515625
aF29.064374923706055
aF16.132648468017578
aF39.805568695068359
aa(lp4
F404
aF417.5
aF12
aF21
aF180
aa(lp5
F599.7000732421875
aF217.40003967285156
aF19.677398681640625
aF12.969194412231445
aF63.43494987487793
aa(lp6
F451.75006103515625
aF244.25003051757812
aF0.70710670948028564
aF1.4142134189605713
aF135
aa(lp7
F455.300048828125
aF253.10000610351562
aF0.4472135603427887
aF2.2360680103302002
aF153.43494987487793
aa.(lp1
(lp2
F524
aF259.50003051757812
aF95.459403991699219
aF26.16295051574707
aF45
aa(lp3
F581.9036865234375
aF216.82110595703125
aF19.827005386352539
aF39.5582275390625
aF106.69924163818359
aa.(lp1
(lp2
F518.40350341796875
aF260.30126953125
aF91.965164184570312
aF27.653507232666016
aF46.363922119140625
aa.(lp1
(lp2
F511.9527587890625
aF262.9095458984375
aF90.605484008789062
aF25.383844375610352
aF47.17474365234375
aa.(lp1
(lp2
F506.8116455078125
aF262.26190185546875
aF92.633087158203125
aF26.201028823852539
aF45.643745422363281
aa(lp3
F549.02215576171875
aF216.16815185546875
aF27.280908584594727
aF12.887876510620117
aF48.814071655273438
aa(lp4
F551.8348388671875
aF228.96832275390625
aF15.673274040222168
aF6.0540547370910645
aF47.726310729980469
aa.(lp1
(lp2
F502.71475219726562
aF254.7418212890625
aF110.46533203125
aF27.858200073242188
aF43.994911193847656
aa(lp3
F374.5
aF448
aF15
aF26
aF180
aa(lp4
F419
aF255.5
aF1
aF2
aF90
aa.(lp1
(lp2
F493.88174438476562
aF262.85076904296875
aF93.344825744628906
aF26.103448867797852
aF46.397186279296875
aa.(lp1
(lp2
F489.80792236328125
aF251.73678588867188
aF120.23423767089844
aF29.640077590942383
aF45.389766693115234
aa(lp3
F388.53564453125
aF262.07037353515625
aF28.360403060913086
aF47.697040557861328
aF174.95754861831665
aa(lp4
F412.60440063476562
aF258.65896606445312
aF17.433717727661133
aF30.213521957397461
aF175.76360559463501
aa(lp5
F411.75003051757812
aF248.25
aF0.70710670948028564
aF1.4142134189605713
aF135
aa(lp6
F377.70004272460938
aF267.89999389648438
aF0.4472135603427887
aF2.2360680103302002
aF153.43494987487793
aa.(lp1
(lp2
F486.88812255859375
aF254.78550720214844
aF117.45266723632812
aF27.436094284057617
aF47.526111602783203
aa(lp3
F507.81765747070312
aF216.929443359375
aF16.029567718505859
aF10.660813331604004
aF32.47119140625
aa.(lp1
(lp2
F471.30258178710938
aF253.26168823242188
aF114.55867767333984
aF33.887001037597656
aF45.4307861328125
aa.(lp1
(lp2
F465.43606567382812
aF254.53329467773438
aF113.28202056884766
aF31.245494842529297
aF44.075954437255859
aa.(lp1
(lp2
F455.797119140625
aF256.59100341796875
aF108.53300476074219
aF31.261335372924805
aF42.633750915527344
aa(lp3
F387.5
aF256
aF11
aF6
aF90
aa(lp4
F359.35000610351562
aF272.54998779296875
aF0.94868320226669312
aF5.0596437454223633
aF161.5650520324707
aa(lp5
F393.5
aF265
aF1
aF4
aF180
aa(lp6
F385.10006713867188
aF260.70004272460938
aF2.2360680103302002
aF0.4472135603427887
aF63.43494987487793
aa.(lp1
(lp2
F448.61541748046875
aF260.97903442382812
aF100.11066436767578
aF28.577730178833008
aF38.765522003173828
aa.(lp1
(lp2
F448.90420532226562
aF261.2781982421875
aF101.39700317382812
aF27.058219909667969
aF37.438575744628906
aa.(lp1
(lp2
F446.63055419921875
aF263.01223754882812
aF98.812667846679688
aF26.750682830810547
aF35.803340911865234
aa.(lp1
(lp2
F444.77047729492188
aF263.829345703125
aF94.859329223632812
aF26.912189483642578
aF33.906276702880859
aa(lp3
F369.68963623046875
aF270.72415161132812
aF22.901588439941406
aF45.568290710449219
aF176.63353943824768
aa(lp4
F390.5
aF268
aF17
aF30
aF180
aa(lp5
F394.78848266601562
aF265.94229125976562
aF0.78446453809738159
aF6.0795998573303223
aF168.69006729125977
aa.(lp1
(lp2
F439.9207763671875
aF262.75628662109375
aF92.783737182617188
aF29.212301254272461
aF30.173515319824219
aa.(lp1
(lp2
F438.07513427734375
aF262.58547973632812
aF93.216156005859375
aF29.224523544311523
aF30.256435394287109
aa(lp3
F389
aF266
aF16
aF28
aF180
aa(lp4
F367.21237182617188
aF259.73287963867188
aF23.525270462036133
aF12.523403167724609
aF69.443954467773438
aa.(lp1
(lp2
F434.12734985351562
aF262.76284790039062
aF91.835517883300781
aF27.963413238525391
aF28.237449645996094
aa.(lp1
(lp2
F430.94363403320312
aF264.20718383789062
aF90.86712646484375
aF29.342025756835938
aF27.758541107177734
aa(lp3
F384.13079833984375
aF265.95388793945312
aF31.380788803100586
aF16.62065315246582
aF7.1250152587890625
aa(lp4
F364.57379150390625
aF273.31149291992188
aF22.815008163452148
aF38.930366516113281
aF174.80557107925415
aa(lp5
F370.60000610351562
aF279.80001831054688
aF3.1622774600982666
aF0.63245546817779541
aF71.565052032470703
aa.(lp1
(lp2
F422.39859008789062
aF264.97433471679688
aF88.258537292480469
aF28.428150177001953
aF25.513870239257812
aa.(lp1
(lp2
F419.00860595703125
aF265.74703979492188
aF87.329399108886719
aF28.116058349609375
aF25.906509399414062
aa.(lp1
(lp2
F410.66714477539062
aF268.5631103515625
aF85.527145385742188
aF29.779500961303711
aF26.131000518798828
aa(lp3
F350.5
aF274
aF19
aF40
aF180
aa(lp4
F369
aF265.5
aF14
aF27
aF180
aa.(lp1
(lp2
F404.26443481445312
aF268.83810424804688
aF84.795158386230469
aF29.695245742797852
aF25.40771484375
aa.(lp1
(lp2
F395.28024291992188
aF269.06478881835938
aF84.818267822265625
aF29.519556045532227
aF23.805946350097656
aa.(lp1
(lp2
F390.8023681640625
aF270.46942138671875
aF82.801658630371094
aF29.492332458496094
aF22.833656311035156
aa(lp3
F333.49053955078125
aF271.78305053710938
aF32.554447174072266
aF17.032709121704102
aF15.945396423339844
aa.(lp1
(lp2
F383.49530029296875
aF270.76116943359375
aF82.025550842285156
aF30.219940185546875
aF22.833656311035156
aa.(lp1
(lp2
F380.34933471679688
aF271.5684814453125
aF80.641357421875
aF28.909168243408203
aF20.556045532226562
aa.(lp1
(lp2
F368.88677978515625
aF270.896240234375
aF82.004257202148438
aF28.845718383789062
aF15.945396423339844
aa(lp3
F320.5
aF277.5
aF21
aF39
aF180
aa.(lp1
(lp2
F361
aF270
aF32
aF80
aF180
aa.(lp1
(lp2
F307.9000244140625
aF262.80001831054688
aF21.466251373291016
aF13.863621711730957
aF63.43494987487793
aa(lp3
F351.45877075195312
aF269.40716552734375
aF81.415931701660156
aF28.65223503112793
aF2.6025543212890625
aa(lp4
F339.70001220703125
aF275.9000244140625
aF4.4271879196166992
aF1.2649109363555908
aF18.434951782226562
aa(lp5
F343.05001831054688
aF269.35000610351562
aF3.1622774600982666
aF0.94868320226669312
aF18.434951782226562
aa.(lp1
(lp2
F340
aF285.5
aF22
aF49
aF180
aa(lp3
F299.66864013671875
aF275.69525146484375
aF18.782970428466797
aF43.517314910888672
aF176.0548141002655
aa.(lp1
(lp2
F340
aF285.5
aF22
aF49
aF180
aa(lp3
F299.66864013671875
aF275.69525146484375
aF18.782970428466797
aF43.517314910888672
aF176.0548141002655
aa.(lp1
(lp2
F329
aF283
aF20
aF56
aF180
aa(lp3
F290
aF272.5
aF16
aF29
aF180
aa.(lp1
(lp2
F325
aF281.5
aF20
aF57
aF180
aa(lp3
F289
aF274
aF16
aF28
aF180
aa.(lp1
(lp2
F319.5
aF284.5
aF19
aF49
aF180
aa.(lp1
(lp2
F306.5
aF283.5
aF25
aF45
aF180
aa.(lp1
(lp2
F295.58798217773438
aF277.01602172851562
aF16.27857780456543
aF2.057182788848877
aF10.304847717285156
aa.(lp1
(lp2
F265.5
aF270.5
aF15
aF33
aF180
aa(lp3
F315.5
aF241
aF15
aF26
aF180
aa(lp4
F312
aF269.5
aF12
aF21
aF180
aa.(lp1
(lp2
F311.112060546875
aF256.0948486328125
aF54.31787109375
aF16.324722290039062
aF3.366455078125
aa(lp3
F287.76995849609375
aF271.88998413085938
aF17.394828796386719
aF33.375446319580078
aF171.86989784240723
aa(lp4
F265.5
aF274
aF19
aF40
aF180
aa.(lp1
(lp2
F303.50564575195312
aF270.1910400390625
aF84.664520263671875
aF17.634490966796875
aF5.4403305053710938
aa(lp3
F262
aF274.5
aF18
aF41
aF180
aa.(lp1
(lp2
F301.41107177734375
aF269.62542724609375
aF83.736503601074219
aF18.062114715576172
aF5.0796051025390625
aa(lp3
F260.5
aF275
aF19
aF40
aF180
aa(lp4
F280.49996948242188
aF272.99996948242188
aF16.263456344604492
aF30.971281051635742
aF171.86989688873291
aa.(lp1
(lp2
F297.68972778320312
aF269.01675415039062
aF82.649482727050781
aF17.608060836791992
aF5.042449951171875
aa(lp3
F256.67071533203125
aF274.5970458984375
aF17.692981719970703
aF39.299236297607422
aF177.6140558719635
aa(lp4
F277
aF269
aF16
aF30
aF180
aa.(lp1
(lp2
F296.85000610351562
aF271.94998168945312
aF78.920707702636719
aF18.560552597045898
aF4.398712158203125
aa.(lp1
(lp2
F296.39068603515625
aF266.62420654296875
aF85.374664306640625
aF16.399049758911133
aF5.1021652221679688
aa(lp3
F274.20001220703125
aF268.10000610351562
aF14.230247497558594
aF27.511814117431641
aF161.56505393981934
aa(lp4
F253.84439086914062
aF282.04150390625
aF13.20521068572998
aF25.250938415527344
aF165.06858158111572
aa.(lp1
(lp2
F299.6436767578125
aF264.62991333007812
aF81.275108337402344
aF15.698466300964355
aF3.468231201171875
aa(lp3
F279.1162109375
aF269.9027099609375
aF15.856195449829102
aF33.012077331542969
aF171.02737331390381
aa(lp4
F255.42784118652344
aF283.41238403320312
aF15.292507171630859
aF26.349061965942383
aF158.96248817443848
aa.(lp1
(lp2
F302
aF251.5
aF16
aF53
aF180
aa(lp3
F278.43988037109375
aF270.64938354492188
aF14.815601348876953
aF33.947052001953125
aF165.06858348846436
aa(lp4
F258.19308471679688
aF285.21722412109375
aF13.619460105895996
aF23.335781097412109
aF138.36645889282227
aa.(lp1
(lp2
F300.3785400390625
aF269.87197875976562
aF78.702484130859375
aF16.475051879882812
aF4.5139923095703125
aa(lp3
F280
aF272.5
aF18
aF35
aF180
aa(lp4
F260.08392333984375
aF271.69131469726562
aF39.101699829101562
aF16.393749237060547
aF10.007980346679688
aa.(lp1
(lp2
F300.53021240234375
aF271.00186157226562
aF76.405258178710938
aF15.940447807312012
aF3.468231201171875
aa(lp3
F258.47415161132812
aF283.43966674804688
aF14.70632266998291
aF26.392597198486328
aF156.8014087677002
aa(lp4
F278
aF269.5
aF18
aF31
aF180
aa(lp5
F267.48233032226562
aF277.7655029296875
aF10.630146026611328
aF4.609532356262207
aF48.814071655273438
aa(lp6
F282.6500244140625
aF259.55001831054688
aF5.0596437454223633
aF0.94868320226669312
aF18.434951782226562
aa(lp7
F280.5
aF267
aF1
aF6
aF180
aa.(lp1
(lp2
F299.72232055664062
aF271.69329833984375
aF81.648422241210938
aF17.759071350097656
aF4.9697418212890625
aa(lp3
F258.91998291015625
aF275.05999755859375
aF17.801553726196289
aF40.713764190673828
aF174.09385967254639
aa(lp4
F275.85147094726562
aF276.51483154296875
aF22.686847686767578
aF14.328536033630371
aF84.289406299591064
aa.(lp1
(lp2
F298.45733642578125
aF269.61260986328125
aF85.703056335449219
aF21.615631103515625
aF6.7098388671875
aa.(lp1
(lp2
F298.1300048828125
aF270.0899658203125
aF85.277084350585938
aF23.475946426391602
aF8.1301040649414062
aa.(lp1
(lp2
F295.19430541992188
aF270.32525634765625
aF83.962593078613281
aF26.457046508789062
aF5.5275421142578125
aa.(lp1
(lp2
F295.52310180664062
aF269.8154296875
aF84.839759826660156
aF27.287639617919922
aF7.1250152587890625
aa.(lp1
(lp2
F295.88565063476562
aF269.96307373046875
aF83.832069396972656
aF29.190008163452148
aF9.78240966796875
aa.(lp1
(lp2
F295.95944213867188
aF269.2432861328125
aF84.00787353515625
aF29.263017654418945
aF9.4623260498046875
aa.(lp1
(lp2
F294.73092651367188
aF268.80551147460938
aF82.896041870117188
aF27.442232131958008
aF4.8990936279296875
aa.(lp1
(lp2
F286.63613891601562
aF267.91168212890625
aF83.123771667480469
aF43.554580688476562
aF4.8990936279296875
aa.(lp1
(lp2
F286.97589111328125
aF266.06646728515625
aF84.994697570800781
aF43.046142578125
aF5.9061508178710938
aa.(lp1
(lp2
F297.89996337890625
aF268.59207153320312
aF77.825675964355469
aF49.113723754882812
aF33.340709686279297
aa.(lp1
(lp2
F295.24996948242188
aF268.24996948242188
aF82.448654174804688
aF26.304374694824219
aF8.1301040649414062
aa.(lp1
(lp2
F295.49533081054688
aF269.3424072265625
aF80.680091857910156
aF25.685907363891602
aF8.9149246215820312
aa.(lp1
(lp2
F295.335205078125
aF266.54025268554688
aF84.315093994140625
aF23.431892395019531
aF6.8427734375
aa(lp3
F294.75003051757812
aF234.75003051757812
aF1.4142134189605713
aF0.70710670948028564
aF45
aa(lp4
F291.19998168945312
aF237.4000244140625
aF3.1622774600982666
aF0.63245546817779541
aF18.434951782226562
aa.(lp1
(lp2
F294.89871215820312
aF270.16506958007812
aF80.045761108398438
aF22.783588409423828
aF4.9697418212890625
aa.(lp1
(lp2
F294.22317504882812
aF269.28656005859375
aF78.250617980957031
aF24.081901550292969
aF5.3558197021484375
aa.(lp1
(lp2
F294.14065551757812
aF265.85440063476562
aF86.682456970214844
aF24.467109680175781
aF6.1155014038085938
aa.(lp1
(lp2
F293.39230346679688
aF264.86154174804688
aF86.948348999023438
aF26.791501998901367
aF7.1250152587890625
aa.(lp1
(lp2
F292.150146484375
aF262.78244018554688
aF84.339118957519531
aF50.519618988037109
aF27.012664794921875
aa.(lp1
(lp2
F283.95172119140625
aF264.07931518554688
aF86.699485778808594
aF42.602336883544922
aF4.7636489868164062
aa.(lp1
(lp2
F281.69873046875
aF261.51589965820312
aF89.833000183105469
aF46.132610321044922
aF4.5739212036132812
aa.(lp1
(lp2
F284.31988525390625
aF261.45083618164062
aF89.9005126953125
aF43.204479217529297
aF6.519805908203125
aa.(lp1
(lp2
F291.32461547851562
aF261.24887084960938
aF86.329299926757812
aF50.990016937255859
aF25.709953308105469
aa.(lp1
(lp2
F290.26602172851562
aF261.92706298828125
aF84.384223937988281
aF50.565746307373047
aF24.904762268066406
aa.(lp1
(lp2
F288.80352783203125
aF263.68017578125
aF80.38873291015625
aF50.255195617675781
aF24.057350158691406
aa.(lp1
(lp2
F290.37991333007812
aF261.8011474609375
aF85.681716918945312
aF48.719207763671875
aF23.334037780761719
aa.(lp1
(lp2
F284.14804077148438
aF265.75177001953125
aF81.849830627441406
aF39.632160186767578
aF4.23638916015625
aa.(lp1
(lp2
F285.43759155273438
aF263.08261108398438
aF84.374244689941406
aF38.600505828857422
aF6.1155014038085938
aa.(lp1
(lp2
F282.18524169921875
aF260.77392578125
aF92.174842834472656
aF41.422286987304688
aF1.4688034057617188
aa(lp3
F263.25003051757812
aF282.25003051757812
aF1.4142134189605713
aF0.70710670948028564
aF45
aa.(lp1
(lp2
F281.70318603515625
aF260.20013427734375
aF91.146133422851562
aF42.236087799072266
aF1.8476104736328125
aa(lp3
F273.47061157226562
aF273.61767578125
aF8.246211051940918
aF3.1529629230499268
aF14.036239624023438
aa.(lp1
(lp2
F288.17620849609375
aF263.56143188476562
aF86.733253479003906
aF31.596977233886719
aF5.194427490234375
aa(lp3
F248.5
aF284.5
aF15
aF31
aF180
aa.(lp1
(lp2
F283.06198120117188
aF261.830322265625
aF90.077529907226562
aF39.755203247070312
aF1.6365814208984375
aa(lp3
F252.87617492675781
aF283.912841796875
aF32.27874755859375
aF18.677614212036133
aF16.699241638183594
aa(lp4
F255.44673156738281
aF276.4139404296875
aF1.9012506008148193
aF11.045360565185547
aF174.80557107925415
aa(lp5
F259.69232177734375
aF281.5384521484375
aF7.0601806640625
aF0.78446453809738159
aF11.309928894042969
aa.(lp1
(lp2
F288.04107666015625
aF264.39846801757812
aF85.177139282226562
aF29.528757095336914
aF1.4688034057617188
aa.(lp1
(lp2
F288.56805419921875
aF262.76333618164062
aF88.479484558105469
aF31.648962020874023
aF3.9451828002929688
aa(lp3
F259.49188232421875
aF275.44863891601562
aF27.349983215332031
aF16.76289176940918
aF36.027378082275391
aa.(lp1
(lp2
F253.50001525878906
aF282.5
aF23.583309173583984
aF14.669931411743164
aF21.801406860351562
aa(lp3
F289
aF262
aF30
aF90
aF180
aa(lp4
F291
aF220.5
aF1
aF2
aF90
aa(lp5
F277.80001831054688
aF263.60000610351562
aF3.1622774600982666
aF0.63245546817779541
aF18.434951782226562
aa.(lp1
(lp2
F284.964599609375
aF261.69049072265625
aF90.291603088378906
aF39.537788391113281
aF2.9356689453125
aa.(lp1
(lp2
F286.17398071289062
aF262.34487915039062
aF89.249687194824219
aF36.081592559814453
aF1.3019485473632812
aa(lp3
F252.84001159667969
aF280.8800048828125
aF22.80000114440918
aF14.000000953674316
aF36.869899749755859
aa.(lp1
(lp2
F286.15054321289062
aF263.63949584960938
aF88.298835754394531
aF37.159095764160156
aF3.012786865234375
aa.(lp1
(lp2
F287.5009765625
aF266.72549438476562
aF82.368057250976562
aF34.561672210693359
aF2.2457427978515625
aa(lp3
F253
aF272.5
aF14
aF25
aF180
aa.(lp1
(lp2
F287.23284912109375
aF263.88470458984375
aF86.265792846679688
aF38.013145446777344
aF1.54815673828125
aa.(lp1
(lp2
F286.46896362304688
aF267.37240600585938
aF80.720207214355469
aF39.529647827148438
aF4.7636489868164062
aa.(lp1
(lp2
F288.05740356445312
aF264.86883544921875
aF87.548065185546875
aF37.391258239746094
aF5.194427490234375
aa.(lp1
(lp2
F288.40692138671875
aF265.61727905273438
aF86.533393859863281
aF36.124786376953125
aF4.7636489868164062
aa.(lp1
(lp2
F288.731689453125
aF265.91461181640625
aF85.584449768066406
aF35.890247344970703
aF6.3401870727539062
aa.(lp1
(lp2
F288.2030029296875
aF265.77175903320312
aF85.794677734375
aF36.718418121337891
aF6.1155014038085938
aa(lp3
F292.9000244140625
aF233.30003356933594
aF2.2360680103302002
aF0.4472135603427887
aF63.43494987487793
aa.(lp1
(lp2
F287.64755249023438
aF265.87704467773438
aF85.827880859375
aF38.387153625488281
aF5.194427490234375
aa.(lp1
(lp2
F287.96762084960938
aF266.42059326171875
aF84.596237182617188
aF37.121109008789062
aF4.398712158203125
aa.(lp1
(lp2
F288.91470336914062
aF266.22525024414062
aF84.709907531738281
aF38.090248107910156
aF6.7098388671875
aa.(lp1
(lp2
F289.33956909179688
aF266.2882080078125
aF84.715202331542969
aF37.985202789306641
aF7.8533172607421875
aa.(lp1
(lp2
F288.29888916015625
aF266.36181640625
aF84.759330749511719
aF37.449592590332031
aF5.4403305053710938
aa(lp3
F292.25003051757812
aF234.25003051757812
aF1.4142134189605713
aF0.70710670948028564
aF45
aa.(lp1
(lp2
F289.2138671875
aF265.60983276367188
aF85.836280822753906
aF36.949897766113281
aF8.7461624145507812
aa.(lp1
(lp2
F287.86337280273438
aF265.8970947265625
aF85.602073669433594
aF37.226276397705078
aF4.5139923095703125
aa.(lp1
(lp2
F288.11459350585938
aF266.29666137695312
aF84.664520263671875
aF37.259975433349609
aF5.4403305053710938
aa.(lp1
(lp2
F286.21945190429688
aF265.61099243164062
aF84.394569396972656
aF36.853961944580078
aF2.8624038696289062
aa.(lp1
(lp2
F286.60037231445312
aF265.28646850585938
aF85.212127685546875
aF36.338085174560547
aF1.54815673828125
aa.(lp1
(lp2
F285.5
aF265
aF37
aF86
aF180
aa.(lp1
(lp2
F283.19708251953125
aF265.69366455078125
aF84.208892822265625
aF41.479747772216797
aF1.7899093627929688
aa.(lp1
(lp2
F285.89520263671875
aF264.8294677734375
aF84.275558471679688
aF36.567520141601562
aF2.1211013793945312
aa.(lp1
(lp2
F286.156494140625
aF269.30517578125
aF77.290412902832031
aF35.446979522705078
aF1.909149169921875
aa.(lp1
(lp2
F286.77935791015625
aF265.64828491210938
aF84.374214172363281
aF37.536563873291016
aF4.7636489868164062
aa.(lp1
(lp2
F286
aF266.5
aF38
aF83
aF180
aa.(lp1
(lp2
F285.34121704101562
aF267.37152099609375
aF35.934967041015625
aF82.016281127929688
aF177.79740166664124
aa.(lp1
(lp2
F289.05404663085938
aF267.17568969726562
aF82.528289794921875
aF36.989772796630859
aF9.4623260498046875
aa.(lp1
(lp2
F286.5
aF267.5
aF33
aF83
aF180
aa.(lp1
(lp2
F290.32022094726562
aF267.22689819335938
aF80.365447998046875
aF41.587425231933594
aF15.461212158203125
aa.(lp1
(lp2
F282.99996948242188
aF267.5
aF37.999992370605469
aF82.999984741210938
aF180
aa.(lp1
(lp2
F285.5
aF272
aF35
aF74
aF180
aa.(lp1
(lp2
F284.23129272460938
aF269.66995239257812
aF36.335933685302734
aF79.313568115234375
aF178.15238976478577
aa.(lp1
(lp2
F285.5
aF269.5
aF35
aF79
aF180
aa.(lp1
(lp2
F286
aF270.5
aF36
aF77
aF180
aa.(lp1
(lp2
F284
aF268.5
aF38
aF81
aF180
aa(lp3
F283.10003662109375
aF237.70004272460938
aF2.2360680103302002
aF0.4472135603427887
aF63.43494987487793
aa.(lp1
(lp2
F286.17074584960938
aF269.03659057617188
aF34.785938262939453
aF79.400283813476562
aF173.65980863571167
aa.(lp1
(lp2
F286
aF268
aF36
aF82
aF180
aa.(lp1
(lp2
F285
aF268
aF36
aF80
aF180
aa.(lp1
(lp2
F283.33908081054688
aF267.66629028320312
aF38.563568115234375
aF81.943283081054688
aF176.05481362342834
aa.(lp1
(lp2
F285
aF267
aF38
aF82
aF180
aa.(lp1
(lp2
F284.35400390625
aF273.30978393554688
aF37.649761199951172
aF70.909255981445312
aF176.18592500686646
aa(lp3
F279.2020263671875
aF250.98257446289062
aF59.727165222167969
aF18.751337051391602
aF25.144790649414062
aa.(lp1
(lp2
F285
aF266
aF38
aF84
aF180
aa.(lp1
(lp2
F285.31649780273438
aF266.8123779296875
aF35.787837982177734
aF83.085807800292969
aF178.15238964557648
aa.(lp1
(lp2
F286
aF271
aF36
aF76
aF180
aa.(lp1
(lp2
F286.5
aF268.5
aF35
aF79
aF180
aa.(lp1
(lp2
F287
aF271.5
aF34
aF73
aF180
aa(lp3
F280.7938232421875
aF245.46392822265625
aF33.303356170654297
aF11.168807983398438
aF23.962486267089844
aa(lp4
F285.25003051757812
aF237.25003051757812
aF2.8284268379211426
aF0.70710670948028564
aF45
aa.(lp1
(lp2
F287
aF271.5
aF34
aF75
aF180
aa.(lp1
(lp2
F287.5
aF270.5
aF33
aF77
aF180
aa.(lp1
(lp2
F286
aF269.5
aF36
aF79
aF180
aa.(lp1
(lp2
F285
aF269
aF38
aF82
aF180
aa.(lp1
(lp2
F286.5
aF271.5
aF35
aF75
aF180
aa(lp3
F275.86996459960938
aF272.91000366210938
aF18.243356704711914
aF1.6970564126968384
aF8.1301040649414062
aa.(lp1
(lp2
F286.99996948242188
aF270.5
aF33.999992370605469
aF76.999984741210938
aF180
aa.(lp1
(lp2
F286
aF268.5
aF36
aF81
aF180
aa.(lp1
(lp2
F286
aF269
aF36
aF82
aF180
aa.(lp1
(lp2
F284.5
aF268
aF37
aF82
aF180
aa.(lp1
(lp2
F284.5
aF269
aF37
aF82
aF180
aa(lp3
F284
aF236.00001525878906
aF7.2000002861022949
aF0.80000007152557373
aF53.130104064941406
aa.(lp1
(lp2
F284.291748046875
aF271.41854858398438
aF35.962867736816406
aF78.055770874023438
aF177.39743804931641
aa(lp3
F273.75543212890625
aF273.38241577148438
aF19.235383987426758
aF1.5076383352279663
aF8.972625732421875
aa(lp4
F281.08822631835938
aF237.85295104980469
aF4.123105525970459
aF0.72760689258575439
aF75.96375560760498
aa.(lp1
(lp2
F284.5
aF269.5
aF37
aF81
aF180
aa.(lp1
(lp2
F288.4541015625
aF269.415771484375
aF78.040367126464844
aF40.102336883544922
aF12.011482238769531
aa(lp3
F282.25003051757812
aF238.25003051757812
aF4.242640495300293
aF0.70710670948028564
aF45
aa.(lp1
(lp2
F284.5
aF270.5
aF37
aF79
aF180
aa.(lp1
(lp2
F284.5
aF270
aF37
aF80
aF180
aa.(lp1
(lp2
F283.5
aF274.5
aF39
aF75
aF180
aa.(lp1
(lp2
F284
aF272
aF40
aF84
aF180
aa(lp3
F295.5
aF261.49996948242188
aF0.44721353054046631
aF3.1304950714111328
aF153.43494987487793
aa.(lp1
(lp2
F285.98101806640625
aF274.12918090820312
aF37.950130462646484
aF88.857589721679688
aF177.0643265247345
aa.(lp1
(lp2
F281.72412109375
aF276.81033325195312
aF43.452713012695312
aF92.290580749511719
aF158.19858741760254
aa.(lp1
(lp2
F286.94577026367188
aF276.0084228515625
aF40.688446044921875
aF97.186752319335938
aF171.15818500518799
aa(lp3
F273.30001831054688
aF263.10000610351562
aF0.4472135603427887
aF2.2360680103302002
aF153.43494987487793
aa.(lp1
(lp2
F291.09414672851562
aF279.64813232421875
aF33.189628601074219
aF100.80918121337891
aF157.86450958251953
aa.(lp1
(lp2
F287.70755004882812
aF283.80706787109375
aF39.599857330322266
aF100.03057861328125
aF154.91640853881836
aa(lp3
F279.88238525390625
aF276.0294189453125
aF0.72760689258575439
aF10.186495780944824
aF165.96375560760498
aa.(lp1
(lp2
F292.66915893554688
aF287.20516967773438
aF35.426528930664062
aF96.907028198242188
aF154.53665351867676
aa.(lp1
(lp2
F293.64804077148438
aF289.91650390625
aF35.695804595947266
aF96.246917724609375
aF153.94650459289551
aa(lp3
F278.55697631835938
aF277.3834228515625
aF2.447373628616333
aF13.892441749572754
aF149.74356460571289
aa(lp4
F283.50003051757812
aF279.50003051757812
aF0.44721353054046631
aF3.1304950714111328
aF153.43494987487793
aa.(lp1
(lp2
F294.77862548828125
aF296.15896606445312
aF38.392974853515625
aF94.826026916503906
aF152.44718742370605
aa.(lp1
(lp2
F296.91986083984375
aF299.30325317382812
aF35.630290985107422
aF94.362869262695312
aF152.4027042388916
aa.(lp1
(lp2
F299.46060180664062
aF306.73220825195312
aF34.680812835693359
aF91.999649047851562
aF149.82647705078125
aa.(lp1
(lp2
F300.11459350585938
aF309.72808837890625
aF33.070735931396484
aF90.904998779296875
aF149.38139152526855
aa.(lp1
(lp2
F303.990966796875
aF317.70263671875
aF31.37458610534668
aF85.494827270507812
aF152.48799896240234
aa.(lp1
(lp2
F305.32083129882812
aF321.63711547851562
aF31.80131721496582
aF81.917640686035156
aF150.70863723754883
aa.(lp1
(lp2
F305.48382568359375
aF329.89373779296875
aF30.900611877441406
aF77.275558471679688
aF144.78240203857422
aa.(lp1
(lp2
F304.00003051757812
aF334.50003051757812
aF31.819805145263672
aF71.41778564453125
aF135
aa.(lp1
(lp2
F305.9114990234375
aF345.07473754882812
aF31.315702438354492
aF63.355251312255859
aF130.36453247070312
aa.(lp1
(lp2
F304.5
aF363
aF47
aF26
aF90
aa.(lp1
(lp2
F304.1683349609375
aF368.68319702148438
aF49.154838562011719
aF24.676923751831055
aF84.289406299591064
aa.(lp1
(lp2
F303.67236328125
aF375.343505859375
aF51.582557678222656
aF28.757797241210938
aF60.75117301940918
aa.(lp1
(lp2
F305.34002685546875
aF384.12005615234375
aF54.400001525878906
aF20.200002670288086
aF53.130100250244141
aa.(lp1
(lp2
F311
aF385.5
aF30.761571884155273
aF14.298957824707031
aF48.814071655273438
aa.