(lp1
(lp2
F356.22280883789062
aF116.72772979736328
aF40.099998474121094
aF159.50447082519531
aF174.28940677642822
aa(lp3
F345.35003662109375
aF109.04998016357422
aF0.63245552778244019
aF10.435516357421875
aF161.5650520324707
aa(lp4
F364.7523193359375
aF69.541534423828125
aF1.6641006469726562
aF21.023136138916016
aF176.8201699256897
aa.(lp1
(lp2
F358.13320922851562
aF116.2489013671875
aF39.054374694824219
aF159.9180908203125
aF172.40535640716553
aa(lp3
F345.9000244140625
aF111.29998779296875
aF1.341640830039978
aF6.7082037925720215
aF153.43494987487793
aa(lp4
F343.6500244140625
aF102.95001983642578
aF0.63245546817779541
aF4.1109609603881836
aF161.56505012512207
aa(lp5
F370.38238525390625
aF96.029411315917969
aF0.72760689258575439
aF6.0633902549743652
aF165.96375560760498
aa.(lp1
(lp2
F357.2838134765625
aF117.10687255859375
aF38.829952239990234
aF160.52554321289062
aF174.06847286224365
aa.(lp1
(lp2
F358.64566040039062
aF116.99444580078125
aF39.487937927246094
aF160.61495971679688
aF173.04704236984253
aa(lp3
F346.80001831054688
aF109.59999847412109
aF0.89442712068557739
aF5.3665633201599121
aF153.43494987487793
aa(lp4
F371.5
aF96.5
aF5
aF1
aF0
aa(lp5
F369.64999389648438
aF86.949996948242188
aF0.63245546817779541
aF4.1109609603881836
aF161.56505012512207
aa(lp6
F366.36886596679688
aF69.557380676269531
aF1.5391076803207397
aF25.078401565551758
aF174.80557107925415
aa.(lp1
(lp2
F359.32742309570312
aF120.18817138671875
aF39.56292724609375
aF155.69285583496094
aF173.58121347427368
aa.(lp1
(lp2
F359.99658203125
aF117.97412872314453
aF37.831809997558594
aF156.80630493164062
aF172.50414228439331
aa.(lp1
(lp2
F359.02578735351562
aF109.75892639160156
aF39.026462554931641
aF142.50105285644531
aF172.52844095230103
aa(lp3
F349.1500244140625
aF112.95000457763672
aF0.94868320226669312
aF10.751743316650391
aF161.5650520324707
aa(lp4
F372.73529052734375
aF95.558830261230469
aF0.97618716955184937
aF11.171918869018555
aF167.47119235992432
aa.(lp1
(lp2
F361.66082763671875
aF116.18514251708984
aF39.198589324951172
aF159.65370178222656
aF171.02737331390381
aa.(lp1
(lp2
F362.90542602539062
aF120.43244171142578
aF37.48297119140625
aF150.75390625
aF170.53767776489258
aa(lp3
F349.28082275390625
aF112.08219909667969
aF1.1704115867614746
aF10.416662216186523
aF159.44395446777344
aa(lp4
F369.0174560546875
aF73.131011962890625
aF2.2467832565307617
aF32.247947692871094
aF172.40535640716553
aa(lp5
F346.61764526367188
aF101.97060394287109
aF0.72760689258575439
aF6.0633902549743652
aF165.96375560760498
aa(lp6
F373.5
aF96.500007629394531
aF0.63245546817779541
aF5.0596437454223633
aF161.56505012512207
aa.(lp1
(lp2
F362.50003051757812
aF115
aF38.549816131591797
aF154.91481018066406
aF169.69515323638916
aa.(lp1
(lp2
F360.34136962890625
aF117.84182739257812
aF39.454563140869141
aF158.81196594238281
aF173.57125234603882
aa(lp3
F348.85000610351562
aF110.05001068115234
aF0.94868320226669312
aF14.546475410461426
aF161.5650520324707
aa(lp4
F368.50491333007812
aF70.549507141113281
aF1.2935483455657959
aF23.084863662719727
aF174.28940629959106
aa.(lp1
(lp2
F361.43667602539062
aF118.71886444091797
aF39.553806304931641
aF160.38079833984375
aF172.50414228439331
aa(lp3
F352.30007934570312
aF120.10000610351562
aF0.4472135603427887
aF2.2360680103302002
aF153.43494987487793
aa(lp4
F350.79998779296875
aF115.40001678466797
aF0.63245546817779541
aF3.1622774600982666
aF161.56505012512207
aa(lp5
F373.78848266601562
aF96.942306518554688
aF0.78446453809738159
aF6.0795998573303223
aF168.69006729125977
aa(lp6
F345.70004272460938
aF94.900009155273438
aF0.4472135603427887
aF2.2360680103302002
aF153.43494987487793
aa(lp7
F369.20266723632812
aF74.118118286132812
aF2.0516812801361084
aF30.262298583984375
aF171.57303142547607
aa.(lp1
(lp2
F362.57235717773438
aF124.52451324462891
aF38.839187622070312
aF144.80149841308594
aF172.14668655395508
aa.(lp1
(lp2
F359.97817993164062
aF116.59714508056641
aF39.935001373291016
aF156.03739929199219
aF174.2176079750061
aa(lp3
F350.64999389648438
aF115.95000457763672
aF0.63245546817779541
aF8.5381488800048828
aF161.5650520324707
aa(lp4
F373.64999389648438
aF96.95001220703125
aF0.63245546817779541
aF4.1109609603881836
aF161.56505012512207
aa(lp5
F345.7884521484375
aF97.942314147949219
aF0.78446453809738159
aF6.0795998573303223
aF168.69006729125977
aa(lp6
F368.07220458984375
aF70.080680847167969
aF2.1224253177642822
aF26.075511932373047
aF175.03025913238525
aa.(lp1
(lp2
F361.12188720703125
aF117.65101623535156
aF39.751560211181641
aF158.90451049804688
aF172.69424104690552
aa.(lp1
(lp2
F360.48709106445312
aF116.80734252929688
aF37.831298828125
aF160.65232849121094
aF172.09283685684204
aa.(lp1
(lp2
F359.23126220703125
aF120.2860107421875
aF39.51153564453125
aF154.19834899902344
aF174.99935579299927
aa.(lp1
(lp2
F360.6978759765625
aF117.38388061523438
aF38.73388671875
aF161.2421875
aF172.52844142913818
aa.(lp1
(lp2
F361.08047485351562
aF118.276123046875
aF40.286952972412109
aF159.4927978515625
aF173.21102571487427
aa(lp3
F348.35000610351562
aF111.55000305175781
aF0.94868320226669312
aF7.5894656181335449
aF161.5650520324707
aa(lp4
F351.6500244140625
aF120.94999694824219
aF0.63245546817779541
aF4.1109609603881836
aF161.56505012512207
aa(lp5
F368.11538696289062
aF72.076927185058594
aF2.0357959270477295
aF26.075511932373047
aF175.03025913238525
aa.(lp1
(lp2
F360.56671142578125
aF118.25189208984375
aF39.705192565917969
aF159.70115661621094
aF173.5006537437439
aa.(lp1
(lp2
F359.92874145507812
aF119.32329559326172
aF39.884902954101562
aF161.10989379882812
aF173.99099397659302
aa.(lp1
(lp2
F361.47262573242188
aF117.9796142578125
aF38.540714263916016
aF162.7542724609375
aF171.67435073852539
aa.(lp1
(lp2
F359.32919311523438
aF117.57188415527344
aF37.9613037109375
aF162.9246826171875
aF173.88449621200562
aa(lp3
F350.5
aF117.50001525878906
aF0.63245546817779541
aF9.4868316650390625
aF161.5650520324707
aa(lp4
F347.6500244140625
aF108.95001220703125
aF0.63245546817779541
aF4.1109609603881836
aF161.56505012512207
aa(lp5
F368.38653564453125
aF72.058425903320312
aF1.516945481300354
aF24.081510543823242
aF174.55966806411743
aa.(lp1
(lp2
F359.08963012695312
aF114.13938903808594
aF41.043697357177734
aF153.45515441894531
aF176.30861353874207
aa(lp3
F350.15005493164062
aF113.95000457763672
aF0.94868326187133789
aF12.649110794067383
aF161.5650520324707
aa(lp4
F345.70004272460938
aF94.900009155273438
aF0.4472135603427887
aF2.2360680103302002
aF153.43494987487793
aa(lp5
F373.73529052734375
aF95.441184997558594
aF0.72760689258575439
aF5.0932478904724121
aF165.96375560760498
aa.(lp1
(lp2
F361.207275390625
aF118.3658447265625
aF38.982330322265625
aF162.88650512695312
aF173.65980815887451
aa(lp3
F369.66156005859375
aF71.592308044433594
aF2.9584896564483643
aF33.059398651123047
aF176.0548141002655
aa(lp4
F352.64999389648438
aF120.95000457763672
aF0.63245546817779541
aF4.1109609603881836
aF161.56505012512207
aa(lp5
F348.8165283203125
aF109.55506134033203
aF1.0536088943481445
aF13.601133346557617
aF163.30075645446777
aa(lp6
F373.66213989257812
aF94.472969055175781
aF0.82199490070343018
aF9.0419445037841797
aF170.53767776489258
aa.(lp1
(lp2
F361.88592529296875
aF117.55143737792969
aF41.262039184570312
aF161.30632019042969
aF174.16050815582275
aa.(lp1
(lp2
F281.81173706054688
aF91.192771911621094
aF34.153327941894531
aF179.70872497558594
aF178.79816699028015
aa(lp3
F437.82574462890625
aF30.650117874145508
aF35.371089935302734
aF97.659965515136719
aF125.62791061401367
aa(lp4
F401.23077392578125
aF8.1538448333740234
aF11.648702621459961
aF1.1094002723693848
aF33.690071105957031
aa(lp5
F259.70001220703125
aF77.599998474121094
aF4.7434163093566895
aF33.83636474609375
aF161.5650520324707
aa(lp6
F262.6600341796875
aF109.3800048828125
aF1
aF5.8000006675720215
aF143.13010406494141
aa(lp7
F285.33013916015625
aF54.905673980712891
aF0.96152383089065552
aF14.56021785736084
aF164.05460453033447
aa(lp8
F252.30000305175781
aF50.900001525878906
aF1.2649109363555908
aF8.2219219207763672
aF161.56505012512207
aa(lp9
F255.10000610351562
aF2.2000017166137695
aF0.89442712068557739
aF2.2360680103302002
aF153.43494987487793
aa(lp10
F250.5
aF23
aF1
aF44
aF180
aa.(lp1
(lp2
F297.84234619140625
aF85.877784729003906
aF168.59530639648438
aF30.922937393188477
aF9.1623458862304688
aa(lp3
F429.30001831054688
aF27.900003433227539
aF26.385599136352539
aF70.212532043457031
aF116.56504821777344
aa(lp4
F272.25
aF107.75
aF1.8973661661148071
aF18.024978637695312
aF161.5650520324707
aa(lp5
F255.85292053222656
aF47.767677307128906
aF7.109807014465332
aF93.43359375
aF174.22567367553711
aa(lp6
F440.375244140625
aF10.513007164001465
aF4.2848682403564453
aF23.706497192382812
aF152.2414608001709
aa(lp7
F266.88461303710938
aF108.07691192626953
aF0.83205032348632812
aF4.4376015663146973
aF146.3099365234375
aa(lp8
F288.300048828125
aF52.600009918212891
aF0.89442712068557739
aF3.1304950714111328
aF153.43494987487793
aa(lp9
F263.5
aF67.5
aF1
aF7
aF180
aa(lp10
F286.50003051757812
aF111.50000762939453
aF3.1304950714111328
aF0.44721353054046631
aF63.43494987487793
aa(lp11
F268.1470947265625
aF94.088226318359375
aF0.72760689258575439
aF4.123105525970459
aF165.96375560760498
aa(lp12
F431.14706420898438
aF3.0882477760314941
aF0.72760689258575439
aF4.123105525970459
aF165.96375560760498
aa.(lp1
(lp2
F299.68911743164062
aF90.47247314453125
aF178.77755737304688
aF17.963003158569336
aF4.3652572631835938
aa(lp3
F281.12255859375
aF135.24578857421875
aF16.695781707763672
aF81.851325988769531
aF175.98582458496094
aa(lp4
F457.00006103515625
aF33.499984741210938
aF21.920309066772461
aF70.003570556640625
aF135
aa(lp5
F436.00003051757812
aF5
aF1.4142134189605713
aF11.31370735168457
aF135
aa(lp6
F259.28439331054688
aF59.180290222167969
aF10.519585609436035
aF115.97412872314453
aF172.5685920715332
aa(lp7
F410.64190673828125
aF5.6013526916503906
aF10.229792594909668
aF1.5112192630767822
aF35.537677764892578
aa(lp8
F429.18658447265625
aF30.572219848632812
aF12.57155704498291
aF72.862884521484375
aF133.3316650390625
aa(lp9
F261.10000610351562
aF2.2000017166137695
aF0.89442712068557739
aF2.2360680103302002
aF153.43494987487793
aa(lp10
F290.11764526367188
aF52.970600128173828
aF0.72760689258575439
aF10.186495780944824
aF165.96375560760498
aa.(lp1
(lp2
F289.33035278320312
aF146.75520324707031
aF27.536174774169922
aF66.168251037597656
aF165.25643730163574
aa(lp3
F443.43807983398438
aF6.0708332061767578
aF1.7873698472976685
aF14.863390922546387
aF131.1859245300293
aa(lp4
F298.2728271484375
aF77.596099853515625
aF15.584123611450195
aF153.01295471191406
aF179.18154442310333
aa(lp5
F264.07528686523438
aF63.077133178710938
aF9.9591159820556641
aF123.90692901611328
aF172.56859254837036
aa(lp6
F264.30001831054688
aF2.6000018119812012
aF0.89442712068557739
aF3.1304950714111328
aF153.43494987487793
aa(lp7
F287.25
aF115.24999237060547
aF1.4142134189605713
aF0.70710670948028564
aF45
aa.(lp1
(lp2
F475.9000244140625
aF47.200004577636719
aF24.596748352050781
aF45.61578369140625
aF116.56504821777344
aa(lp3
F293
aF91
aF30
aF180
aF180
aa(lp4
F445.10589599609375
aF5.3764629364013672
aF1.3015825748443604
aF13.449687957763672
aF130.60129547119141
aa(lp5
F266.49765014648438
aF64.48028564453125
aF8.181304931640625
aF126.88965606689453
aF173.15722608566284
aa(lp6
F266.6500244140625
aF3.4500045776367188
aF0.94868320226669312
aF5.0596437454223633
aF161.5650520324707
aa(lp7
F295.11767578125
aF54.970596313476562
aF0.72760689258575439
aF6.3059263229370117
aF165.96375560760498
aa.(lp1
(lp2
F294
aF91.5
aF30
aF181
aF180
aa(lp3
F443.1444091796875
aF19.164257049560547
aF35.810169219970703
aF61.586280822753906
aF122.7352294921875
aa(lp4
F267.3463134765625
aF65.062942504882812
aF10.728241920471191
aF127.76215362548828
aF173.10257244110107
aa(lp5
F449.98101806640625
aF7.0224227905273438
aF1.468050479888916
aF18.438718795776367
aF130.23635482788086
aa(lp6
F419.4200439453125
aF9.4400043487548828
aF8.6000003814697266
aF1.2000000476837158
aF36.869899749755859
aa(lp7
F267.73532104492188
aF3.9411783218383789
aF0.9701424241065979
aF6.0633902549743652
aF165.96375560760498
aa(lp8
F282.5
aF119
aF3
aF8
aF180
aa(lp9
F303.75003051757812
aF1.2500001192092896
aF0.70710670948028564
aF1.4142134189605713
aF135
aa(lp10
F296.5
aF59.5
aF0.78446453809738159
aF9.0213432312011719
aF168.69006729125977
aa.(lp1
(lp2
F295
aF90
aF30
aF178
aF180
aa(lp3
F269.54135131835938
aF65.263801574707031
aF11.77089786529541
aF128.69401550292969
aF175.638427734375
aa(lp4
F448.25006103515625
aF2.749969482421875
aF0.70710670948028564
aF5.6568536758422852
aF135
aa(lp5
F444.70321655273438
aF17.260103225708008
aF35.238246917724609
aF61.043476104736328
aF122.82854080200195
aa(lp6
F267.25
aF62.75
aF0.70710670948028564
aF1.4142134189605713
aF135
aa(lp7
F282.339599609375
aF120.31133270263672
aF7.2801089286804199
aF1.373605489730835
aF15.945396423339844
aa.(lp1
(lp2
F296
aF91
aF30
aF180
aF180
aa(lp3
F455.39410400390625
aF5.1235313415527344
aF1.8439089059829712
aF12.039640426635742
aF130.60129547119141
aa(lp4
F269.1529541015625
aF64.950019836425781
aF8.8114652633666992
aF128.13270568847656
aF172.34229040145874
aa(lp5
F422.00006103515625
aF11.500001907348633
aF3.5355339050292969
aF0.70710670948028564
aF45
aa(lp6
F424.67941284179688
aF15.567641258239746
aF12.808315277099609
aF26.383596420288086
aF147.52880859375
aa(lp7
F281.75003051757812
aF111.25
aF0.70710670948028564
aF1.4142134189605713
aF135
aa(lp8
F298.90386962890625
aF59.519233703613281
aF0.78446453809738159
aF7.2562966346740723
aF168.69006729125977
aa.(lp1
(lp2
F297
aF91
aF30
aF180
aF180
aa(lp3
F272.07418823242188
aF80.278656005859375
aF10.903046607971191
aF158.23638916015625
aF174.55966854095459
aa(lp4
F457.06002807617188
aF4.9200148582458496
aF1.3999999761581421
aF12.800000190734863
aF126.86989974975586
aa(lp5
F450.5
aF19
aF61
aF36
aF90
aa(lp6
F305.75003051757812
aF1.2500153779983521
aF0.70710670948028564
aF1.4142134189605713
aF135
aa.(lp1
(lp2
F309.89669799804688
aF91.411613464355469
aF178.66488647460938
aF29.914060592651367
aF9.5878372192382812
aa(lp3
F486.5670166015625
aF37.536846160888672
aF28.871957778930664
aF80.079971313476562
aF130.1354866027832
aa(lp4
F461.8360595703125
aF4.1967391967773438
aF1.2803691625595093
aF9.98687744140625
aF129.80556869506836
aa(lp5
F274.56817626953125
aF82.265983581542969
aF10.577543258666992
aF162.56178283691406
aF173.75808620452881
aa(lp6
F456.747802734375
aF29.193843841552734
aF16.694829940795898
aF79.633560180664062
aF123.27488708496094
aa(lp7
F274.30001831054688
aF3.9000058174133301
aF1.2649109363555908
aF6.3245549201965332
aF161.56505012512207
aa.(lp1
(lp2
F470.95220947265625
aF34.337577819824219
aF25.37916374206543
aF103.35225677490234
aF118.61045837402344
aa(lp3
F301.5
aF148
aF29
aF66
aF180
aa(lp4
F277.83816528320312
aF79.621604919433594
aF10.922022819519043
aF153.24885559082031
aF175.8150839805603
aa(lp5
F476.2642822265625
aF15.349315643310547
aF9.5061788558959961
aF34.174110412597656
aF158.83874320983887
aa(lp6
F311.3914794921875
aF57.062015533447266
aF111.90708160400391
aF8.4544734954833984
aF1.8778762817382812
aa(lp7
F465.6229248046875
aF4.3524489402770996
aF1.7925164699554443
aF11.395282745361328
aF129.80556869506836
aa(lp8
F430.79409790039062
aF12.176466941833496
aF6.6884446144104004
aF1.2004901170730591
aF30.963760375976562
aa.(lp1
(lp2
F306.36114501953125
aF91.428108215332031
aF181.22004699707031
aF29.109041213989258
aF0.80129241943359375
aa(lp3
F281.57864379882812
aF81.806358337402344
aF9.4399852752685547
aF161.36767578125
aF175.53284120559692
aa(lp4
F461.30258178710938
aF14.971346855163574
aF30.587640762329102
aF55.072029113769531
aF124.82448577880859
aa(lp5
F299.00003051757812
aF118.00000762939453
aF4.4721360206604004
aF0.89442712068557739
aF63.43494987487793
aa(lp6
F291.79537963867188
aF137.57774353027344
aF21.581031799316406
aF1.1197705268859863
aF14.743560791015625
aa(lp7
F303.10003662109375
aF113.69999694824219
aF2.2360680103302002
aF0.4472135603427887
aF63.43494987487793
aa.(lp1
(lp2
F322.29794311523438
aF89.266372680664062
aF175.20162963867188
aF25.862890243530273
aF8.2309799194335938
aa(lp3
F287.98126220703125
aF82.733352661132812
aF10.698111534118652
aF163.42153930664062
aF176.67687964439392
aa(lp4
F468
aF13.5
aF52
aF25
aF90
aa(lp5
F297.26467895507812
aF143.94119262695312
aF5.5783195495605469
aF2.9104275703430176
aF14.036239624023438
aa(lp6
F481
aF1.5
aF1
aF2
aF90
aa(lp7
F300.74325561523438
aF136.04054260253906
aF8.0555505752563477
aF0.82199496030807495
aF9.4623260498046875
aa(lp8
F318.20001220703125
aF1.6000001430511475
aF0.89442712068557739
aF4.4721360206604004
aF116.56504821777344
aa.(lp1
(lp2
F323.14761352539062
aF91.78106689453125
aF179.93408203125
aF26.516990661621094
aF8.9356155395507812
aa(lp3
F489.308837890625
aF3.4853091239929199
aF1.2004899978637695
aF11.661903381347656
aF120.96376037597656
aa(lp4
F289.43408203125
aF89.388320922851562
aF11.437313079833984
aF176.40840148925781
aF176.00908708572388
aa(lp5
F470.5
aF15.5
aF53
aF29
aF90
aa(lp6
F305.80001831054688
aF118.10001373291016
aF6.7082037925720215
aF0.89442712068557739
aF63.43494987487793
aa(lp7
F447.5
aF12
aF2
aF1
aF0
aa(lp8
F319.72055053710938
aF2.1323680877685547
aF0.85749286413192749
aF5.8309516906738281
aF120.96376037597656
aa(lp9
F298.60003662109375
aF144.19999694824219
aF6.3245549201965332
aF2.5298218727111816
aF18.434951782226562
aa.(lp1
(lp2
F306.3260498046875
aF84.8392333984375
aF168.08332824707031
aF45.419761657714844
aF0.8243408203125
aa(lp3
F472.5
aF13.499998092651367
aF48.999992370605469
aF24.999996185302734
aF90
aa(lp4
F451.300048828125
aF9.3999881744384766
aF5.813776969909668
aF0.89442706108093262
aF26.565048217773438
aa(lp5
F319.95083618164062
aF56.040988922119141
aF14.033040046691895
aF1.1769646406173706
aF5.194427490234375
aa.(lp1
(lp2
F294.63995361328125
aF89.234939575195312
aF34.225135803222656
aF174.15550231933594
aF167.22875785827637
aa(lp3
F317.88726806640625
aF76.809837341308594
aF151.86456298828125
aF23.790342330932617
aF1.342620849609375
aa(lp4
F320.83816528320312
aF56.052017211914062
aF13.989261627197266
aF1.8246864080429077
aF8.7461624145507812
aa(lp5
F472.5
aF11.5
aF45
aF21
aF90
aa(lp6
F319.60003662109375
aF1.3000001907348633
aF0.89442712068557739
aF3.1304950714111328
aF116.56504821777344
aa(lp7
F327.9000244140625
aF156.20001220703125
aF2.2360680103302002
aF0.89442712068557739
aF26.565048217773438
aa(lp8
F291.10000610351562
aF61.700008392333984
aF2.2360680103302002
aF0.4472135603427887
aF63.43494987487793
aa.(lp1
(lp2
F296.24459838867188
aF92.568740844726562
aF33.9981689453125
aF180.79521179199219
aF167.79953098297119
aa(lp3
F320.75274658203125
aF76.783683776855469
aF151.87265014648438
aF21.035406112670898
aF1.7098159790039062
aa(lp4
F322.55767822265625
aF55.711544036865234
aF15.297057151794434
aF2.1572775840759277
aF11.309928894042969
aa(lp5
F484.20001220703125
aF11.599995613098145
aF31.304954528808594
aF64.398757934570312
aF116.56504821777344
aa(lp6
F319.4000244140625
aF1.7000017166137695
aF0.89442712068557739
aF3.1304950714111328
aF116.56504821777344
aa(lp7
F320.69232177734375
aF53.538463592529297
aF7.0601806640625
aF0.78446453809738159
aF11.309928894042969
aa(lp8
F293.85293579101562
aF43.911769866943359
aF0.72760689258575439
aF4.123105525970459
aF165.96375560760498
aa.(lp1
(lp2
F297.821044921875
aF92.8359375
aF34.449199676513672
aF180.44908142089844
aF168.05582332611084
aa(lp3
F328.5
aF51
aF100
aF9
aF0
aa(lp4
F316.93545532226562
aF127.744140625
aF19.561698913574219
aF53.323600769042969
aF172.18470621109009
aa(lp5
F484
aF11.5
aF52
aF21
aF90
aa(lp6
F324.55404663085938
aF55.175674438476562
aF18.248287200927734
aF2.1371870040893555
aF9.4623260498046875
aa(lp7
F319.60000610351562
aF1.6999925374984741
aF0.94868320226669312
aF7.2732377052307129
aF108.43495178222656
aa.(lp1
(lp2
F6
aF152
aF18
aF10
aF0
aa.