(lp1
(lp2
F416.60006713867188
aF84.199996948242188
aF27.727243423461914
aF46.510215759277344
aF153.43494987487793
aa.(lp1
(lp2
F475
aF27
aF50
aF30
aF90
aa.(lp1
(lp2
F468.40158081054688
aF16.918014526367188
aF10.627062797546387
aF1.2803691625595093
aF39.805568695068359
aa(lp3
F490.90692138671875
aF26.446556091308594
aF32.388450622558594
aF77.505722045898438
aF93.301872253417969
aa(lp4
F153.25001525878906
aF140.25001525878906
aF1.4142134189605713
aF0.70710670948028564
aF45
aa.(lp1
(lp2
F490.86285400390625
aF27.43670654296875
aF30.044868469238281
aF73.756355285644531
aF93.731399536132812
aa(lp3
F468.85293579101562
aF17.411767959594727
aF6.3454475402832031
aF1.2004901170730591
aF30.963748931884766
aa(lp4
F159.53773498535156
aF143.36793518066406
aF7.2801089286804199
aF0.96152383089065552
aF15.945396423339844
aa(lp5
F462.75003051757812
aF21.749971389770508
aF1.4142134189605713
aF0.70710670948028564
aF45
aa.(lp1
(lp2
F492.5
aF24
aF73
aF28
aF90
aa(lp3
F591.6534423828125
aF38.294231414794922
aF20.860591888427734
aF44.567741394042969
aF102.2647705078125
aa.(lp1
(lp2
F486.8218994140625
aF23.766698837280273
aF55.133243560791016
aF28.126667022705078
aF84.644175052642822
aa(lp3
F593.4354248046875
aF39.183078765869141
aF23.57475471496582
aF39.550117492675781
aF109.44003295898438
aa(lp4
F201.25
aF122.25
aF42.426399230957031
aF81.317276000976562
aF135
aa(lp5
F182.26905822753906
aF149.13822937011719
aF26.145988464355469
aF56.222770690917969
aF141.49934768676758
aa.(lp1
(lp2
F492.78305053710938
aF24.339153289794922
aF29.563068389892578
aF61.523143768310547
aF92.862403869628906
aa(lp3
F474.25003051757812
aF35.250003814697266
aF2.8284268379211426
aF0.70710670948028564
aF45
aa(lp4
F468.75006103515625
aF22.250003814697266
aF9.1923885345458984
aF1.4142135381698608
aF45
aa.(lp1
(lp2
F484.5
aF24
aF45
aF28
aF90
aa(lp3
F193.09457397460938
aF126.43244171142578
aF7.0691566467285156
aF0.98639392852783203
aF9.4623260498046875
aa(lp4
F193.00003051757812
aF120.50001525878906
aF0.70710670948028564
aF2.1213202476501465
aF135
aa(lp5
F191.74752807617188
aF142.0247802734375
aF14.030025482177734
aF0.89553350210189819
aF5.7105941772460938
aa.(lp1
(lp2
F480
aF22
aF44
aF28
aF90
aa.(lp1
(lp2
F482.25387573242188
aF21.530776977539062
aF53.458965301513672
aF26.419399261474609
aF82.874983310699463
aa(lp3
F235.75001525878906
aF113.75
aF1.4142134189605713
aF0.70710670948028564
aF45
aa(lp4
F215.25001525878906
aF110.75
aF0.70710670948028564
aF1.4142134189605713
aF135
aa(lp5
F225.0882568359375
aF112.14705657958984
aF0.72760689258575439
aF4.123105525970459
aF104.03623962402344
aa.(lp1
(lp2
F583.2213134765625
aF37.065574645996094
aF23.448757171630859
aF45.358402252197266
aF95.194427490234375
aa(lp3
F238.5
aF115.5
aF3
aF1
aF90
aa(lp4
F201.5
aF137
aF18
aF1
aF0
aa(lp5
F201.95001220703125
aF124.34999847412109
aF0.94868320226669312
aF3.1622774600982666
aF161.5650520324707
aa.(lp1
(lp2
F485.68438720703125
aF22.914676666259766
aF29.410741806030273
aF79.145484924316406
aF91.735702514648438
aa.(lp1
(lp2
F471
aF21
aF54
aF30
aF90
aa(lp3
F207.08792114257812
aF137.00517272949219
aF30.065675735473633
aF0.99827438592910767
aF3.366455078125
aa(lp4
F247.5
aF117.5
aF3
aF1
aF90
aa(lp5
F215.20002746582031
aF111.90000152587891
aF0.44721353054046631
aF4.4721360206604004
aF153.43494987487793
aa.(lp1
(lp2
F472.770751953125
aF19.873847961425781
aF74.551704406738281
aF32.006202697753906
aF86.820169925689697
aa(lp3
F571.4901123046875
aF36.099014282226562
aF24.179405212402344
aF45.572696685791016
aF95.710594177246094
aa(lp4
F212.80003356933594
aF155.60000610351562
aF3.1622774600982666
aF0.63245546817779541
aF18.434951782226562
aa.(lp1
(lp2
F483.4093017578125
aF23.860624313354492
aF32.128677368164062
aF94.856094360351562
aF93.814079284667969
aa(lp3
F247.41175842285156
aF119.85294342041016
aF0.9701424241065979
aF5.0932478904724121
aF104.03623962402344
aa(lp4
F215.50003051757812
aF155.5
aF5.0596437454223633
aF0.63245546817779541
aF18.434951782226562
aa.(lp1
(lp2
F482.87081909179688
aF21.797428131103516
aF30.792135238647461
aF94.04638671875
aF95.042449951171875
aa(lp3
F569.5
aF30.5
aF39
aF21
aF90
aa(lp4
F225.50003051757812
aF152.00001525878906
aF2.1213202476501465
aF0.70710670948028564
aF45
aa.(lp1
(lp2
F576.5
aF31.5
aF43
aF21
aF90
aa(lp3
F454.98077392578125
aF9.0961551666259766
aF11.401754379272461
aF1.3155869245529175
aF37.874984741210938
aa(lp4
F475.85031127929688
aF17.85966682434082
aF76.250656127929688
aF32.853878021240234
aF88.152389645576477
aa(lp5
F447.75006103515625
aF14.750032424926758
aF4.242640495300293
aF0.70710670948028564
aF45
aa(lp6
F453.00006103515625
aF31.500003814697266
aF2.1213202476501465
aF0.70710670948028564
aF45
aa(lp7
F271.75
aF120.75000762939453
aF1.4142134189605713
aF0.70710670948028564
aF45
aa(lp8
F265.25003051757812
aF117.75003051757812
aF0.70710670948028564
aF1.4142134189605713
aF135
aa.(lp1
(lp2
F477.5
aF23
aF75
aF30
aF90
aa(lp3
F576.5
aF34.5
aF49
aF27
aF90
aa(lp4
F239.68035888671875
aF148.01641845703125
aF24.173042297363281
aF1.5391074419021606
aF5.194427490234375
aa.(lp1
(lp2
F451.25006103515625
aF6.7500162124633789
aF7.7781744003295898
aF1.4142134189605713
aF45
aa(lp3
F461.702880859375
aF16.996610641479492
aF56.844486236572266
aF31.860294342041016
aF84.644175052642822
aa(lp4
F454
aF29.5
aF3
aF6
aF90
aa(lp5
F243.84410095214844
aF150.02645874023438
aF16.029569625854492
aF0.92035806179046631
aF4.398712158203125
aa.(lp1
(lp2
F618.60003662109375
aF20.70002555847168
aF30.857738494873047
aF20.57182502746582
aF63.43494987487793
aa(lp3
F492.90008544921875
aF32.20001220703125
aF0.4472135603427887
aF4.4721360206604004
aF116.56504821777344
aa.(lp1
(lp2
F608.90277099609375
aF22.427595138549805
aF36.391593933105469
aF22.938140869140625
aF70.346176147460938
aa.(lp1
(lp2
F628.00006103515625
aF15.999980926513672
aF0.89442712068557739
aF4.4721360206604004
aF116.56504821777344
aa.(lp1
(lp2
F529.00006103515625
aF35.999996185302734
aF0.89442712068557739
aF4.4721360206604004
aF116.56504821777344
aa.(lp1
(lp2
F543.00006103515625
aF42.999996185302734
aF0.89442712068557739
aF8.9442720413208008
aF116.56504821777344
aa.(lp1
(lp2
F547.9000244140625
aF35.199996948242188
aF0.4472135603427887
aF4.4721360206604004
aF116.56504821777344
aa.(lp1
(lp2
F496.5
aF5
aF8
aF15
aF90
aa.(lp1
(lp2
F507
aF5
aF8
aF16
aF90
aa.(lp1
(lp2
F498.50003051757812
aF8.0000009536743164
aF17.888544082641602
aF6.7082037925720215
aF63.43494987487793
aa.(lp1
(lp2
F458
aF5
aF8
aF18
aF90
aa(lp3
F619.5269775390625
aF13.204876899719238
aF12.821475982666016
aF34.686405181884766
aF112.7509765625
aa.(lp1
(lp2
F618.5
aF13
aF37
aF24
aF90
aa.(lp1
(lp2
F587
aF10.5
aF34
aF19
aF90
aa.(lp1
(lp2
F577
aF8.5
aF30
aF15
aF90
aa.(lp1
(lp2
F550
aF8.5
aF28
aF15
aF90
aa.(lp1
(lp2
F472.94757080078125
aF14.075270652770996
aF23.762691497802734
aF12.949331283569336
aF20.854461669921875
aa(lp3
F543.5
aF8.5
aF31
aF15
aF90
aa(lp4
F442
aF13
aF4
aF24
aF180
aa.(lp1
(lp2
F432.45272827148438
aF5.4662189483642578
aF10.229792594909668
aF1.2787238359451294
aF35.537677764892578
aa(lp3
F463.67074584960938
aF15.036569595336914
aF26.393365859985352
aF13.89946460723877
aF38.659805297851562
aa(lp4
F525
aF7
aF12
aF34
aF90
aa(lp5
F446
aF27
aF2
aF8
aF90
aa(lp6
F428
aF11.5
aF2
aF21
aF180
aa(lp7
F438.20001220703125
aF2.3999960422515869
aF3.1622774600982666
aF0.63245546817779541
aF18.434951782226562
aa.(lp1
(lp2
F516
aF9.5
aF44
aF17
aF90
aa(lp3
F427.14700317382812
aF5.5882320404052734
aF8.0604333877563477
aF1.2004901170730591
aF30.963748931884766
aa(lp4
F442.15093994140625
aF25.528312683105469
aF8.241633415222168
aF1.3736056089401245
aF74.054605484008789
aa(lp5
F512.25006103515625
aF4.2499852180480957
aF2.8284268379211426
aF0.70710670948028564
aF45
aa(lp6
F460.7008056640625
aF14.636154174804688
aF27.573930740356445
aF11.923861503601074
aF48.179828643798828
aa(lp7
F432.800048828125
aF2.8999881744384766
aF4.4721360206604004
aF0.4472135603427887
aF26.565048217773438
aa(lp8
F423.3011474609375
aF11.661796569824219
aF3.4131276607513428
aF21.095026016235352
aF174.55966806411743
aa.(lp1
(lp2
F507
aF5.5
aF9
aF42
aF90
aa(lp3
F445.51629638671875
aF11.415430068969727
aF19.828342437744141
aF9.3694362640380859
aF29.357753753662109
aa(lp4
F418.68002319335938
aF3.7599987983703613
aF7.2000002861022949
aF1.2000000476837158
aF36.869899749755859
aa(lp5
F435.00006103515625
aF22.500009536743164
aF11.180339813232422
aF0.89442712068557739
aF63.43494987487793
aa(lp6
F502.00006103515625
aF1.5000002384185791
aF2.1213202476501465
aF0.70710670948028564
aF45
aa(lp7
F416.90005493164062
aF20.699995040893555
aF0.4472135603427887
aF2.2360680103302002
aF116.56504821777344
aa(lp8
F414.5972900390625
aF8.9435815811157227
aF16.031219482421875
aF1.8089704513549805
aF3.5763320922851562
aa.(lp1
(lp2
F453.69277954101562
aF14.093168258666992
aF35.699935913085938
aF13.348124504089355
aF61.821407318115234
aa(lp3
F419.25006103515625
aF15.750016212463379
aF12.020814895629883
aF29.698484420776367
aF135
aa(lp4
F415.50003051757812
aF3.0000004768371582
aF2.1213202476501465
aF0.70710670948028564
aF45
aa(lp5
F522.00006103515625
aF7.5000162124633789
aF14.849242210388184
aF3.5355339050292969
aF45
aa.(lp1
(lp2
F495.21023559570312
aF8.7378807067871094
aF8.8596315383911133
aF24.041629791259766
aF106.92751312255859
aa(lp3
F446.5999755859375
aF9.2000007629394531
aF42.426406860351562
aF11.313708305358887
aF81.86989688873291
aa(lp4
F406.01998901367188
aF2.6399836540222168
aF5
aF1.2000000476837158
aF36.869899749755859
aa(lp5
F423.10000610351562
aF21.299993515014648
aF10.751744270324707
aF1.2649110555648804
aF71.565052032470703
aa(lp6
F404.5
aF10.500008583068848
aF3.1622776985168457
aF18.973667144775391
aF161.5650520324707
aa.(lp1
(lp2
F446.04486083984375
aF9.3547019958496094
aF3.7226290702819824
aF61.991561889648438
aF92.245742797851562
aa(lp3
F407.61767578125
aF17.970590591430664
aF11.399173736572266
aF1.6977493762969971
aF75.96375560760498
aa(lp4
F390.15386962890625
aF8.7692289352416992
aF2.7456257343292236
aF15.297057151794434
aF168.69006729125977
aa.(lp1
(lp2
F434.55648803710938
aF10.255290031433105
aF78.512962341308594
aF9.5895957946777344
aF84.035513401031494
aa(lp3
F383.61538696289062
aF9.9230537414550781
aF3.882901668548584
aF18.859807968139648
aF146.30993270874023
aa.(lp1
(lp2
F427.5
aF7.5
aF53
aF5
aF90
aa(lp3
F368.24774169921875
aF8.1743049621582031
aF2.8445990085601807
aF14.764822959899902
aF151.69924163818359
aa(lp4
F396.65005493164062
aF7.9499950408935547
aF6.3245549201965332
aF2.2135941982269287
aF71.565052032470703
aa(lp5
F391.07388305664062
aF14.709232330322266
aF18.63792610168457
aF1.7195706367492676
aF70.559965133666992
aa.(lp1
(lp2
F411.66702270507812
aF8.5445613861083984
aF72.778900146484375
aF8.8174428939819336
aF83.571252346038818
aa(lp3
F451
aF6.5
aF1
aF2
aF90
aa(lp4
F359.83026123046875
aF8.3990898132324219
aF3.7927987575531006
aF14.764822959899902
aF151.69924163818359
aa(lp5
F384.50003051757812
aF11.000006675720215
aF3.5777084827423096
aF0.4472135603427887
aF63.43494987487793
aa.(lp1
(lp2
F372.90530395507812
aF9.050811767578125
aF33.369716644287109
aF7.6797924041748047
aF80.217593193054199
aa(lp3
F408.5377197265625
aF5.3679237365722656
aF4.5641322135925293
aF39.011672973632812
aF91.909149169921875
aa(lp4
F347.623046875
aF9.4747600555419922
aF4.7740750312805176
aF17.804492950439453
aF141.8427734375
aa(lp5
F240.02944946289062
aF157.38236999511719
aF0.72760689258575439
aF6.0633902549743652
aF104.03623962402344
aa.(lp1
(lp2
F366.55291748046875
aF8.1996603012084961
aF36.220787048339844
aF7.886784553527832
aF83.290163040161133
aa(lp3
F338.19671630859375
aF9.0038223266601562
aF3.9799623489379883
aF19.849433898925781
aF130.91438293457031
aa(lp4
F405.14926147460938
aF4.9938554763793945
aF2.1078605651855469
aF18.027753829956055
aF109.44003295898438
aa(lp5
F388.5
aF3
aF11
aF4
aF90
aa.(lp1
(lp2
F390.32440185546875
aF3.81951904296875
aF2.4445064067840576
aF15.505154609680176
aF102.09475708007812
aa(lp3
F341.83999633789062
aF7.6200079917907715
aF19.400001525878906
aF6
aF53.130104064941406
aa(lp4
F325.02972412109375
aF7.7029585838317871
aF3.7994265556335449
aF14.212668418884277
aF140.71059036254883
aa.(lp1
(lp2
F327
aF6
aF10
aF28
aF90
aa.(lp1
(lp2
F302.80001831054688
aF5.9000029563903809
aF3
aF10
aF143.13010406494141
aa(lp3
F319.77972412109375
aF6.9529805183410645
aF15.619864463806152
aF2.6033110618591309
aF50.710594177246094
aa.(lp1
(lp2
F310.5
aF5.5
aF1
aF5
aF90
aa(lp3
F318.27999877929688
aF7.0400099754333496
aF16.400003433227539
aF2.7999999523162842
aF53.130107879638672
aa(lp4
F299.01181030273438
aF5.3470635414123535
aF2.6031656265258789
aF9.2195453643798828
aF139.39870452880859
aa.(lp1
(lp2
F316.72454833984375
aF8.3358592987060547
aF17.691699981689453
aF3.6857709884643555
aF47.489551544189453
aa(lp3
F297.73074340820312
aF6.3461527824401855
aF3.0508508682250977
aF10.816654205322266
aF146.30993270874023
aa(lp4
F309.04998779296875
aF6.6500086784362793
aF4.1109609603881836
aF0.63245546817779541
aF71.565052032470703
aa.(lp1
(lp2
F288.28848266601562
aF6.4423055648803711
aF3.0697031021118164
aF11.401754379272461
aF142.12501525878906
aa(lp3
F304.27044677734375
aF7.5245890617370605
aF15.620500564575195
aF3.9691431522369385
aF50.194431304931641
aa.(lp1
(lp2
F299.77969360351562
aF6.9529805183410645
aF15.619864463806152
aF2.6033110618591309
aF50.710594177246094
aa(lp3
F281.80001831054688
aF5.5999975204467773
aF2.683281421661377
aF8.9442720413208008
aF153.43494987487793
aa.(lp1
(lp2
F447.8846435546875
aF112.57691955566406
aF5.0990195274353027
aF0.78446453809738159
aF11.309928894042969
aa.